(dp0
S'niter'
p1
I100
sS'v_ad'
p2
(lp3
I46
aI56
aI53
aI38
aI47
aI55
aI55
aI56
aI46
aI54
aI51
aI35
aI63
aI62
aI62
aI55
aI47
aI45
aI55
aI52
aI41
aI53
aI62
aI53
aI56
aI49
aI54
aI46
aI54
aI54
aI48
aI44
aI62
aI50
aI62
aI59
aI54
aI51
aI58
aI50
aI54
aI59
aI39
aI45
aI57
aI38
aI39
aI62
aI55
aI42
aI54
aI53
aI48
aI55
aI47
aI52
aI42
aI52
aI58
aI47
aI51
aI53
aI48
aI64
aI45
aI46
aI46
aI45
aI54
aI59
aI44
aI49
aI49
aI48
aI42
aI46
aI41
aI52
aI45
aI51
aI49
aI51
aI48
aI46
aI58
aI52
aI59
aI57
aI44
aI53
aI46
aI55
aI56
aI54
aI48
aI49
aI53
aI51
aI52
aI51
asS'trans'
p4
F0.8047941557912676
sS'ecount'
p5
I13033
sS'name'
p6
S'SNAP_GR_1000'
p7
sS't_m'
p8
I22
sS'v_nonad_g'
p9
(lp10
I8
aI12
aI105
aI75
aI127
aI172
aI4
aI61
aI89
aI74
aI151
aI136
aI184
aI152
aI149
aI40
aI177
aI427
aI305
aI130
aI319
aI249
aI120
aI239
aI41
aI145
aI167
aI222
aI129
aI82
aI144
aI368
aI153
aI108
asS'pedge'
p11
F0.05
sS'r_ad'
p12
(lp13
F142.0
aF149.0
aF146.0
aF186.0
aF165.0
aF130.0
aF122.0
aF140.0
aF160.0
aF135.0
aF134.0
aF176.0
aF106.0
aF123.0
aF118.0
aF137.0
aF154.0
aF164.0
aF123.0
aF142.0
aF161.0
aF152.0
aF128.0
aF130.0
aF132.0
aF170.0
aF153.0
aF156.0
aF143.0
aF143.0
aF157.0
aF173.0
aF137.0
aF166.0
aF136.0
aF128.0
aF140.0
aF145.0
aF139.0
aF163.0
aF136.0
aF129.0
aF189.0
aF146.0
aF136.0
aF172.0
aF199.0
aF110.0
aF142.0
aF146.0
aF125.0
aF124.0
aF137.0
aF143.0
aF164.0
aF141.0
aF163.0
aF119.0
aF126.0
aF134.0
aF134.0
aF167.0
aF169.0
aF124.0
aF163.0
aF158.0
aF151.0
aF168.0
aF137.0
aF144.0
aF149.0
aF132.0
aF163.0
aF143.0
aF155.0
aF161.0
aF156.0
aF160.0
aF158.0
aF150.0
aF136.0
aF148.0
aF165.0
aF177.0
aF132.0
aF124.0
aF133.0
aF121.0
aF177.0
aF148.0
aF171.0
aF137.0
aF132.0
aF135.0
aF182.0
aF131.0
aF148.0
aF156.0
aF157.0
aF132.0
asS'v_nonad_rg'
p14
(lp15
I27
aI76
aI58
aI17
aI261
aI86
aI98
aI195
aI225
aI226
aI75
aI213
aI432
aI330
aI161
aI362
aI150
aI236
aI382
aI130
aI361
aI313
aI208
aI198
aI410
aI107
aI177
aI12
aI496
aI149
aI136
aI469
aI316
aI103
aI174
aI153
aI82
aI41
aI120
aI40
asS'nsim_ad'
p16
I1000
sS'git'
p17
S'6993752'
p18
sS'kratio'
p19
I10
sS'r_nonad_g'
p20
(lp21
F119.0
aF136.0
aF122.0
aF175.0
aF127.0
aF135.0
aF115.0
aF120.0
aF121.0
aF124.0
aF101.0
aF155.0
aF100.0
aF116.0
aF118.0
aF103.0
aF122.0
aF147.0
aF116.0
aF138.0
aF100.0
aF133.0
aF136.0
aF121.0
aF107.0
aF134.0
aF148.0
aF129.0
aF129.0
aF143.0
aF136.0
aF161.0
aF119.0
aF137.0
aF135.0
aF106.0
aF110.0
aF108.0
aF84.0
aF141.0
aF127.0
aF128.0
aF167.0
aF117.0
aF127.0
aF149.0
aF143.0
aF105.0
aF114.0
aF96.0
aF112.0
aF120.0
aF115.0
aF132.0
aF166.0
aF143.0
aF99.0
aF114.0
aF130.0
aF117.0
aF124.0
aF168.0
aF129.0
aF119.0
aF145.0
aF139.0
aF112.0
aF137.0
aF128.0
aF131.0
aF87.0
aF140.0
aF138.0
aF107.0
aF138.0
aF147.0
aF142.0
aF136.0
aF150.0
aF156.0
aF124.0
aF136.0
aF142.0
aF159.0
aF134.0
aF94.0
aF135.0
aF125.0
aF150.0
aF129.0
aF156.0
aF106.0
aF113.0
aF123.0
aF161.0
aF130.0
aF145.0
aF158.0
aF121.0
aF112.0
asS'nsim_nonad'
p22
I10000
sS't_h'
p23
I2
sS't_s'
p24
I37
sS'r_nonad_rg'
p25
(lp26
F111.0
aF139.0
aF154.0
aF167.0
aF125.0
aF136.0
aF93.0
aF128.0
aF115.0
aF116.0
aF119.0
aF151.0
aF115.0
aF109.0
aF112.0
aF88.0
aF126.0
aF154.0
aF80.0
aF129.0
aF129.0
aF116.0
aF122.0
aF118.0
aF105.0
aF139.0
aF138.0
aF136.0
aF123.0
aF129.0
aF132.0
aF155.0
aF108.0
aF150.0
aF143.0
aF115.0
aF127.0
aF143.0
aF147.0
aF148.0
aF114.0
aF133.0
aF160.0
aF118.0
aF114.0
aF124.0
aF164.0
aF94.0
aF110.0
aF133.0
aF127.0
aF121.0
aF115.0
aF123.0
aF150.0
aF108.0
aF118.0
aF61.0
aF121.0
aF120.0
aF96.0
aF156.0
aF145.0
aF111.0
aF155.0
aF140.0
aF127.0
aF150.0
aF148.0
aF123.0
aF126.0
aF132.0
aF108.0
aF107.0
aF137.0
aF131.0
aF138.0
aF127.0
aF146.0
aF103.0
aF113.0
aF141.0
aF129.0
aF148.0
aF132.0
aF125.0
aF135.0
aF119.0
aF127.0
aF121.0
aF132.0
aF93.0
aF140.0
aF113.0
aF169.0
aF109.0
aF107.0
aF152.0
aF140.0
aF116.0
asS'workers'
p27
I4
sS'gamma'
p28
F2.0
sS'vcount'
p29
I1000
s.