(dp0
S'niter'
p1
I100
sS'v_ad'
p2
(lp3
I5
aI4
aI5
aI1
aI3
aI6
aI4
aI3
aI7
aI2
aI5
aI3
aI5
aI7
aI4
aI7
aI5
aI5
aI3
aI7
aI1
aI3
aI6
aI4
aI7
aI5
aI4
aI4
aI7
aI5
aI6
aI6
aI4
aI6
aI3
aI7
aI11
aI4
aI5
aI6
aI3
aI4
aI6
aI3
aI4
aI6
aI6
aI5
aI7
aI3
aI5
aI2
aI3
aI9
aI4
aI4
aI4
aI5
aI8
aI3
aI2
aI4
aI3
aI7
aI5
aI4
aI7
aI5
aI6
aI2
aI4
aI3
aI7
aI4
aI4
aI4
aI7
aI4
aI4
aI3
aI2
aI5
aI7
aI4
aI6
aI4
aI5
aI5
aI8
aI3
aI7
aI5
aI4
aI6
aI2
aI6
aI5
aI7
aI3
aI6
asS'trans'
p4
F0.8047941557912676
sS'ecount'
p5
I13033
sS'name'
p6
S'SNAP_GR_1000'
p7
sS't_m'
p8
I38
sS'v_nonad_g'
p9
(lp10
I75
aI172
aI368
aI78
asS'pedge'
p11
F0.6
sS'r_ad'
p12
(lp13
F942.0
aF947.0
aF941.0
aF957.0
aF947.0
aF943.0
aF946.0
aF951.0
aF942.0
aF946.0
aF941.0
aF940.0
aF944.0
aF947.0
aF933.0
aF940.0
aF947.0
aF937.0
aF950.0
aF936.0
aF950.0
aF947.0
aF942.0
aF947.0
aF937.0
aF938.0
aF949.0
aF944.0
aF936.0
aF942.0
aF942.0
aF939.0
aF943.0
aF945.0
aF953.0
aF941.0
aF922.0
aF946.0
aF939.0
aF938.0
aF937.0
aF945.0
aF937.0
aF950.0
aF937.0
aF933.0
aF941.0
aF939.0
aF944.0
aF938.0
aF946.0
aF954.0
aF942.0
aF929.0
aF946.0
aF950.0
aF946.0
aF946.0
aF934.0
aF954.0
aF953.0
aF948.0
aF941.0
aF936.0
aF945.0
aF946.0
aF936.0
aF936.0
aF939.0
aF946.0
aF948.0
aF944.0
aF946.0
aF945.0
aF939.0
aF946.0
aF943.0
aF944.0
aF947.0
aF947.0
aF954.0
aF937.0
aF943.0
aF943.0
aF947.0
aF938.0
aF943.0
aF936.0
aF936.0
aF947.0
aF937.0
aF936.0
aF948.0
aF940.0
aF953.0
aF939.0
aF937.0
aF942.0
aF942.0
aF937.0
asS'v_nonad_rg'
p14
(lp15
I277
aI217
aI115
aI410
asS'nsim_ad'
p16
I1000
sS'git'
p17
S'6993752'
p18
sS'kratio'
p19
I10
sS'r_nonad_g'
p20
(lp21
F926.0
aF942.0
aF936.0
aF951.0
aF936.0
aF938.0
aF930.0
aF946.0
aF938.0
aF939.0
aF929.0
aF937.0
aF935.0
aF943.0
aF914.0
aF935.0
aF941.0
aF933.0
aF946.0
aF927.0
aF944.0
aF941.0
aF936.0
aF945.0
aF932.0
aF933.0
aF940.0
aF935.0
aF933.0
aF934.0
aF938.0
aF926.0
aF943.0
aF935.0
aF949.0
aF928.0
aF919.0
aF934.0
aF937.0
aF927.0
aF931.0
aF932.0
aF931.0
aF944.0
aF934.0
aF918.0
aF934.0
aF932.0
aF939.0
aF931.0
aF944.0
aF950.0
aF937.0
aF917.0
aF944.0
aF937.0
aF941.0
aF939.0
aF931.0
aF952.0
aF945.0
aF942.0
aF937.0
aF928.0
aF931.0
aF940.0
aF933.0
aF928.0
aF927.0
aF939.0
aF943.0
aF939.0
aF941.0
aF933.0
aF934.0
aF938.0
aF941.0
aF937.0
aF941.0
aF941.0
aF949.0
aF934.0
aF928.0
aF938.0
aF940.0
aF934.0
aF924.0
aF930.0
aF926.0
aF941.0
aF928.0
aF924.0
aF933.0
aF935.0
aF946.0
aF930.0
aF927.0
aF932.0
aF938.0
aF922.0
asS'nsim_nonad'
p22
I10000
sS't_h'
p23
I1
sS't_s'
p24
I23
sS'r_nonad_rg'
p25
(lp26
F926.0
aF942.0
aF936.0
aF951.0
aF936.0
aF938.0
aF930.0
aF946.0
aF938.0
aF939.0
aF929.0
aF937.0
aF935.0
aF943.0
aF914.0
aF935.0
aF941.0
aF933.0
aF946.0
aF927.0
aF944.0
aF941.0
aF936.0
aF945.0
aF932.0
aF933.0
aF940.0
aF935.0
aF933.0
aF934.0
aF938.0
aF926.0
aF943.0
aF935.0
aF949.0
aF928.0
aF919.0
aF934.0
aF937.0
aF927.0
aF931.0
aF932.0
aF931.0
aF944.0
aF934.0
aF918.0
aF934.0
aF932.0
aF939.0
aF931.0
aF944.0
aF950.0
aF937.0
aF917.0
aF944.0
aF937.0
aF941.0
aF939.0
aF931.0
aF952.0
aF945.0
aF942.0
aF937.0
aF928.0
aF931.0
aF940.0
aF933.0
aF928.0
aF927.0
aF939.0
aF943.0
aF939.0
aF941.0
aF933.0
aF934.0
aF938.0
aF941.0
aF937.0
aF941.0
aF941.0
aF949.0
aF934.0
aF928.0
aF938.0
aF940.0
aF934.0
aF924.0
aF930.0
aF926.0
aF941.0
aF928.0
aF924.0
aF933.0
aF935.0
aF946.0
aF930.0
aF927.0
aF932.0
aF938.0
aF922.0
asS'workers'
p27
I4
sS'gamma'
p28
F2.0
sS'vcount'
p29
I1000
s.