(dp0
S'niter'
p1
I100
sS'v_ad'
p2
(lp3
I31
aI43
aI49
aI54
aI47
aI46
aI48
aI46
aI67
aI51
aI55
aI73
aI60
aI58
aI51
aI50
aI37
aI61
aI40
aI53
aI49
aI50
aI38
aI42
aI51
aI35
aI32
aI54
aI48
aI36
aI48
aI51
aI36
aI43
aI38
aI58
aI45
aI50
aI52
aI64
aI41
aI64
aI59
aI31
aI68
aI65
aI42
aI48
aI48
aI45
aI51
aI67
aI49
aI56
aI50
aI57
aI40
aI43
aI71
aI31
aI50
aI54
aI47
aI54
aI59
aI49
aI45
aI42
aI51
aI37
aI43
aI58
aI46
aI42
aI47
aI33
aI42
aI43
aI43
aI46
aI43
aI57
aI56
aI42
aI46
aI43
aI59
aI52
aI54
aI41
aI45
aI33
aI46
aI51
aI53
aI44
aI48
aI48
aI63
aI50
asS'trans'
p4
F0.8047941557912676
sS'ecount'
p5
I13033
sS'name'
p6
S'SNAP_GR_1000'
p7
sS't_m'
p8
I55
sS'v_nonad_g'
p9
(lp10
I37
aI111
aI217
aI145
aI405
aI124
aI305
aI418
aI363
aI468
aI389
aI182
aI760
aI380
aI154
aI289
aI168
aI288
aI309
aI146
aI274
aI728
aI518
aI657
aI171
asS'pedge'
p11
F0.2
sS'r_ad'
p12
(lp13
F669.0
aF637.0
aF630.0
aF620.0
aF656.0
aF627.0
aF606.0
aF659.0
aF589.0
aF632.0
aF590.0
aF557.0
aF605.0
aF594.0
aF621.0
aF633.0
aF624.0
aF584.0
aF643.0
aF632.0
aF630.0
aF612.0
aF635.0
aF637.0
aF626.0
aF674.0
aF646.0
aF600.0
aF640.0
aF645.0
aF615.0
aF634.0
aF638.0
aF637.0
aF656.0
aF609.0
aF622.0
aF618.0
aF604.0
aF585.0
aF635.0
aF591.0
aF599.0
aF666.0
aF570.0
aF605.0
aF641.0
aF616.0
aF623.0
aF631.0
aF612.0
aF579.0
aF625.0
aF614.0
aF603.0
aF598.0
aF648.0
aF641.0
aF569.0
aF661.0
aF608.0
aF608.0
aF634.0
aF609.0
aF588.0
aF607.0
aF622.0
aF635.0
aF621.0
aF647.0
aF646.0
aF598.0
aF629.0
aF652.0
aF612.0
aF643.0
aF656.0
aF625.0
aF631.0
aF623.0
aF662.0
aF614.0
aF592.0
aF643.0
aF611.0
aF636.0
aF605.0
aF614.0
aF619.0
aF646.0
aF633.0
aF665.0
aF631.0
aF613.0
aF612.0
aF627.0
aF621.0
aF614.0
aF610.0
aF615.0
asS'v_nonad_rg'
p14
(lp15
I13
aI95
aI52
aI468
aI347
aI422
aI247
aI529
aI219
aI746
aI469
aI165
aI726
aI528
aI803
aI734
aI473
aI963
aI935
aI323
aI951
aI701
aI566
aI419
aI274
aI283
aI146
aI657
aI518
aI309
asS'nsim_ad'
p16
I1000
sS'git'
p17
S'6993752'
p18
sS'kratio'
p19
I10
sS'r_nonad_g'
p20
(lp21
F647.0
aF569.0
aF624.0
aF580.0
aF599.0
aF616.0
aF562.0
aF639.0
aF554.0
aF581.0
aF568.0
aF521.0
aF594.0
aF570.0
aF610.0
aF596.0
aF561.0
aF533.0
aF623.0
aF582.0
aF617.0
aF577.0
aF604.0
aF588.0
aF608.0
aF641.0
aF615.0
aF568.0
aF619.0
aF613.0
aF577.0
aF586.0
aF604.0
aF579.0
aF637.0
aF587.0
aF592.0
aF587.0
aF555.0
aF529.0
aF603.0
aF545.0
aF571.0
aF601.0
aF546.0
aF586.0
aF616.0
aF612.0
aF598.0
aF608.0
aF589.0
aF536.0
aF594.0
aF563.0
aF602.0
aF597.0
aF610.0
aF607.0
aF538.0
aF629.0
aF603.0
aF563.0
aF603.0
aF581.0
aF549.0
aF559.0
aF597.0
aF599.0
aF593.0
aF608.0
aF584.0
aF542.0
aF608.0
aF646.0
aF581.0
aF620.0
aF615.0
aF576.0
aF573.0
aF600.0
aF628.0
aF562.0
aF547.0
aF598.0
aF581.0
aF589.0
aF567.0
aF572.0
aF589.0
aF592.0
aF595.0
aF627.0
aF546.0
aF543.0
aF580.0
aF600.0
aF557.0
aF591.0
aF553.0
aF615.0
asS'nsim_nonad'
p22
I10000
sS't_h'
p23
I0
sS't_s'
p24
I13
sS'r_nonad_rg'
p25
(lp26
F639.0
aF563.0
aF584.0
aF571.0
aF609.0
aF614.0
aF560.0
aF604.0
aF585.0
aF574.0
aF548.0
aF504.0
aF587.0
aF563.0
aF596.0
aF607.0
aF560.0
aF552.0
aF616.0
aF582.0
aF598.0
aF554.0
aF576.0
aF584.0
aF611.0
aF631.0
aF622.0
aF572.0
aF609.0
aF585.0
aF566.0
aF612.0
aF597.0
aF599.0
aF632.0
aF600.0
aF587.0
aF595.0
aF546.0
aF555.0
aF538.0
aF530.0
aF557.0
aF584.0
aF554.0
aF596.0
aF609.0
aF601.0
aF613.0
aF598.0
aF540.0
aF522.0
aF574.0
aF555.0
aF593.0
aF578.0
aF604.0
aF604.0
aF545.0
aF626.0
aF597.0
aF569.0
aF603.0
aF562.0
aF550.0
aF528.0
aF603.0
aF581.0
aF573.0
aF597.0
aF587.0
aF510.0
aF605.0
aF616.0
aF574.0
aF615.0
aF597.0
aF567.0
aF602.0
aF574.0
aF613.0
aF544.0
aF555.0
aF592.0
aF595.0
aF598.0
aF576.0
aF571.0
aF576.0
aF588.0
aF581.0
aF618.0
aF564.0
aF540.0
aF578.0
aF589.0
aF548.0
aF595.0
aF551.0
aF599.0
asS'workers'
p27
I4
sS'gamma'
p28
F2.0
sS'vcount'
p29
I1000
s.