(dp0
S'niter'
p1
I100
sS'v_ad'
p2
(lp3
I9
aI10
aI9
aI4
aI7
aI10
aI12
aI12
aI12
aI12
aI10
aI8
aI12
aI12
aI14
aI12
aI8
aI12
aI11
aI18
aI18
aI9
aI6
aI9
aI14
aI12
aI11
aI15
aI14
aI12
aI14
aI8
aI14
aI13
aI15
aI5
aI12
aI6
aI9
aI12
aI15
aI21
aI8
aI11
aI7
aI13
aI5
aI5
aI8
aI12
aI13
aI9
aI9
aI14
aI9
aI6
aI12
aI9
aI14
aI10
aI11
aI10
aI14
aI15
aI6
aI9
aI10
aI5
aI16
aI12
aI11
aI14
aI9
aI17
aI7
aI8
aI7
aI7
aI9
aI14
aI11
aI12
aI11
aI18
aI19
aI16
aI13
aI10
aI9
aI11
aI7
aI12
aI7
aI14
aI9
aI7
aI12
aI13
aI8
aI9
asS'trans'
p4
F0.8047941557912676
sS'ecount'
p5
I13033
sS'name'
p6
S'SNAP_GR_1000'
p7
sS't_m'
p8
I16
sS'v_nonad_g'
p9
(lp10
I136
aI201
aI437
aI78
aI776
aI418
asS'pedge'
p11
F0.4
sS'r_ad'
p12
(lp13
F869.0
aF889.0
aF854.0
aF899.0
aF871.0
aF872.0
aF871.0
aF859.0
aF865.0
aF880.0
aF886.0
aF879.0
aF878.0
aF878.0
aF878.0
aF881.0
aF886.0
aF875.0
aF864.0
aF847.0
aF848.0
aF875.0
aF885.0
aF867.0
aF868.0
aF865.0
aF867.0
aF873.0
aF867.0
aF877.0
aF871.0
aF882.0
aF863.0
aF850.0
aF864.0
aF880.0
aF882.0
aF883.0
aF867.0
aF868.0
aF854.0
aF847.0
aF883.0
aF877.0
aF877.0
aF877.0
aF885.0
aF891.0
aF890.0
aF865.0
aF885.0
aF881.0
aF881.0
aF859.0
aF869.0
aF889.0
aF866.0
aF887.0
aF855.0
aF863.0
aF854.0
aF868.0
aF872.0
aF872.0
aF892.0
aF870.0
aF879.0
aF908.0
aF855.0
aF879.0
aF884.0
aF870.0
aF875.0
aF846.0
aF877.0
aF898.0
aF876.0
aF880.0
aF880.0
aF861.0
aF873.0
aF882.0
aF876.0
aF867.0
aF865.0
aF870.0
aF865.0
aF876.0
aF873.0
aF857.0
aF884.0
aF877.0
aF887.0
aF863.0
aF875.0
aF878.0
aF885.0
aF884.0
aF874.0
aF871.0
asS'v_nonad_rg'
p14
(lp15
I13
aI437
aI934
aI93
aI672
aI204
aI658
asS'nsim_ad'
p16
I1000
sS'git'
p17
S'6993752'
p18
sS'kratio'
p19
I10
sS'r_nonad_g'
p20
(lp21
F861.0
aF866.0
aF845.0
aF889.0
aF805.0
aF864.0
aF862.0
aF845.0
aF844.0
aF843.0
aF881.0
aF876.0
aF864.0
aF868.0
aF861.0
aF862.0
aF878.0
aF865.0
aF832.0
aF819.0
aF840.0
aF864.0
aF874.0
aF847.0
aF852.0
aF847.0
aF848.0
aF865.0
aF857.0
aF855.0
aF833.0
aF874.0
aF844.0
aF844.0
aF847.0
aF866.0
aF872.0
aF871.0
aF860.0
aF865.0
aF846.0
aF847.0
aF871.0
aF866.0
aF860.0
aF854.0
aF869.0
aF879.0
aF881.0
aF850.0
aF872.0
aF868.0
aF867.0
aF855.0
aF859.0
aF876.0
aF858.0
aF876.0
aF841.0
aF860.0
aF846.0
aF844.0
aF866.0
aF860.0
aF887.0
aF862.0
aF864.0
aF900.0
aF846.0
aF872.0
aF872.0
aF860.0
aF862.0
aF834.0
aF872.0
aF889.0
aF856.0
aF864.0
aF872.0
aF851.0
aF863.0
aF866.0
aF865.0
aF865.0
aF846.0
aF854.0
aF832.0
aF864.0
aF863.0
aF853.0
aF879.0
aF867.0
aF874.0
aF845.0
aF861.0
aF871.0
aF876.0
aF871.0
aF861.0
aF862.0
asS'nsim_nonad'
p22
I10000
sS't_h'
p23
I1
sS't_s'
p24
I48
sS'r_nonad_rg'
p25
(lp26
F859.0
aF864.0
aF843.0
aF887.0
aF806.0
aF862.0
aF860.0
aF843.0
aF842.0
aF841.0
aF879.0
aF874.0
aF862.0
aF866.0
aF859.0
aF860.0
aF876.0
aF863.0
aF838.0
aF817.0
aF838.0
aF862.0
aF872.0
aF845.0
aF850.0
aF846.0
aF846.0
aF863.0
aF856.0
aF853.0
aF831.0
aF874.0
aF842.0
aF843.0
aF845.0
aF864.0
aF870.0
aF869.0
aF858.0
aF863.0
aF845.0
aF845.0
aF869.0
aF864.0
aF858.0
aF852.0
aF867.0
aF878.0
aF879.0
aF848.0
aF870.0
aF866.0
aF865.0
aF853.0
aF858.0
aF874.0
aF856.0
aF874.0
aF840.0
aF858.0
aF844.0
aF843.0
aF864.0
aF859.0
aF885.0
aF860.0
aF862.0
aF898.0
aF845.0
aF870.0
aF870.0
aF858.0
aF860.0
aF832.0
aF870.0
aF887.0
aF854.0
aF862.0
aF870.0
aF849.0
aF861.0
aF864.0
aF863.0
aF863.0
aF844.0
aF852.0
aF830.0
aF862.0
aF861.0
aF851.0
aF877.0
aF865.0
aF872.0
aF843.0
aF859.0
aF869.0
aF874.0
aF869.0
aF859.0
aF863.0
asS'workers'
p27
I4
sS'gamma'
p28
F2.0
sS'vcount'
p29
I1000
s.