(dp0
S'niter'
p1
I100
sS'v_ad'
p2
(lp3
I100
aI100
aI100
aI100
aI100
aI100
aI100
aI100
aI100
aI100
aI100
aI100
aI100
aI100
aI100
aI100
aI100
aI100
aI100
aI100
aI100
aI100
aI100
aI100
aI100
aI100
aI100
aI100
aI100
aI100
aI100
aI100
aI100
aI100
aI100
aI100
aI100
aI100
aI100
aI100
aI100
aI100
aI100
aI100
aI100
aI100
aI100
aI100
aI100
aI100
aI100
aI100
aI100
aI100
aI100
aI100
aI100
aI100
aI100
aI100
aI100
aI100
aI100
aI100
aI100
aI100
aI100
aI100
aI100
aI100
aI100
aI100
aI100
aI100
aI100
aI100
aI100
aI100
aI100
aI100
aI100
aI100
aI100
aI100
aI100
aI100
aI100
aI100
aI100
aI100
aI100
aI100
aI100
aI100
aI100
aI100
aI100
aI100
aI100
aI100
asS'trans'
p4
F0.6892001655525245
sS'ecount'
p5
I45990
sS'name'
p6
S'SNAP_FB_1000'
p7
sS't_m'
p8
I19
sS'v_nonad_g'
p9
(lp10
I145
aI7
aI431
aI396
aI644
aI342
aI682
aI293
aI382
aI507
aI208
aI760
aI655
aI841
aI579
aI978
aI768
aI306
aI902
aI152
aI935
aI214
aI916
aI787
aI284
aI392
aI378
aI799
aI633
aI453
aI886
aI712
aI689
aI749
aI483
aI923
aI776
aI870
aI800
aI267
aI967
aI650
aI979
aI335
aI875
aI926
aI479
aI622
aI753
aI621
aI866
aI840
aI434
aI878
aI665
aI925
aI893
aI425
aI494
aI994
aI305
aI707
aI127
aI734
aI992
aI822
aI497
aI355
aI989
aI887
aI480
aI899
aI907
asS'pedge'
p11
F0.15
sS'r_ad'
p12
(lp13
F832.0
aF840.0
aF838.0
aF834.0
aF819.0
aF851.0
aF856.0
aF843.0
aF846.0
aF832.0
aF818.0
aF817.0
aF829.0
aF853.0
aF838.0
aF824.0
aF837.0
aF841.0
aF837.0
aF840.0
aF865.0
aF843.0
aF839.0
aF839.0
aF822.0
aF848.0
aF832.0
aF832.0
aF848.0
aF827.0
aF835.0
aF822.0
aF831.0
aF837.0
aF829.0
aF833.0
aF851.0
aF827.0
aF824.0
aF853.0
aF845.0
aF838.0
aF837.0
aF855.0
aF837.0
aF854.0
aF840.0
aF853.0
aF816.0
aF865.0
aF835.0
aF830.0
aF847.0
aF836.0
aF836.0
aF820.0
aF839.0
aF853.0
aF845.0
aF820.0
aF834.0
aF836.0
aF824.0
aF829.0
aF843.0
aF832.0
aF849.0
aF845.0
aF832.0
aF850.0
aF826.0
aF828.0
aF842.0
aF839.0
aF838.0
aF849.0
aF842.0
aF849.0
aF839.0
aF849.0
aF829.0
aF825.0
aF831.0
aF828.0
aF811.0
aF841.0
aF833.0
aF818.0
aF840.0
aF839.0
aF840.0
aF847.0
aF854.0
aF839.0
aF845.0
aF843.0
aF831.0
aF839.0
aF855.0
aF840.0
asS'v_nonad_rg'
p14
(lp15
I379
aI357
aI397
aI284
aI307
aI450
aI749
aI787
aI189
aI77
aI872
aI594
aI396
aI434
aI658
aI5
aI507
aI88
aI483
aI751
aI484
aI100
aI633
aI214
aI431
aI89
aI763
aI799
aI959
aI707
aI902
aI576
aI659
aI356
aI98
aI161
aI51
aI566
aI267
aI366
aI734
aI833
aI800
aI841
aI597
aI84
aI533
aI306
aI875
aI871
aI815
aI838
aI989
aI497
aI926
aI480
aI840
aI644
aI528
aI941
aI579
aI846
aI689
aI378
aI453
aI665
aI650
aI293
aI382
aI942
aI726
aI683
aI978
aI76
aI992
aI655
aI392
aI145
aI979
aI753
aI425
aI887
aI870
aI7
aI923
aI987
aI760
aI886
aI935
aI152
aI305
aI494
aI479
aI967
aI994
aI907
aI535
aI622
aI968
aI768
asS'nsim_ad'
p16
I1000
sS'git'
p17
S'fcb943d'
p18
sS'kratio'
p19
I10
sS'r_nonad_g'
p20
(lp21
F848.0
aF859.0
aF853.0
aF840.0
aF850.0
aF860.0
aF870.0
aF863.0
aF850.0
aF852.0
aF833.0
aF826.0
aF848.0
aF845.0
aF855.0
aF840.0
aF854.0
aF849.0
aF844.0
aF842.0
aF869.0
aF858.0
aF837.0
aF840.0
aF852.0
aF858.0
aF845.0
aF851.0
aF835.0
aF856.0
aF846.0
aF842.0
aF847.0
aF851.0
aF847.0
aF851.0
aF853.0
aF833.0
aF853.0
aF854.0
aF854.0
aF851.0
aF846.0
aF855.0
aF837.0
aF859.0
aF850.0
aF866.0
aF835.0
aF868.0
aF856.0
aF857.0
aF848.0
aF842.0
aF852.0
aF827.0
aF853.0
aF840.0
aF835.0
aF847.0
aF852.0
aF862.0
aF834.0
aF851.0
aF861.0
aF843.0
aF852.0
aF852.0
aF842.0
aF851.0
aF855.0
aF850.0
aF856.0
aF847.0
aF849.0
aF858.0
aF847.0
aF854.0
aF856.0
aF853.0
aF844.0
aF845.0
aF843.0
aF843.0
aF841.0
aF848.0
aF840.0
aF841.0
aF869.0
aF840.0
aF847.0
aF860.0
aF853.0
aF845.0
aF847.0
aF826.0
aF838.0
aF848.0
aF854.0
aF845.0
asS'nsim_nonad'
p22
I10000
sS't_h'
p23
I1
sS't_s'
p24
I31
sS'r_nonad_rg'
p25
(lp26
F815.0
aF834.0
aF831.0
aF826.0
aF819.0
aF838.0
aF839.0
aF829.0
aF826.0
aF816.0
aF815.0
aF812.0
aF825.0
aF830.0
aF821.0
aF816.0
aF829.0
aF830.0
aF822.0
aF808.0
aF831.0
aF835.0
aF825.0
aF814.0
aF826.0
aF838.0
aF827.0
aF827.0
aF822.0
aF830.0
aF825.0
aF825.0
aF812.0
aF823.0
aF829.0
aF820.0
aF832.0
aF819.0
aF822.0
aF825.0
aF833.0
aF820.0
aF820.0
aF833.0
aF819.0
aF829.0
aF829.0
aF830.0
aF817.0
aF844.0
aF826.0
aF833.0
aF815.0
aF818.0
aF830.0
aF813.0
aF820.0
aF822.0
aF825.0
aF821.0
aF824.0
aF827.0
aF813.0
aF832.0
aF830.0
aF816.0
aF830.0
aF831.0
aF822.0
aF824.0
aF836.0
aF823.0
aF832.0
aF827.0
aF820.0
aF833.0
aF818.0
aF833.0
aF829.0
aF825.0
aF823.0
aF822.0
aF818.0
aF817.0
aF820.0
aF827.0
aF818.0
aF817.0
aF832.0
aF820.0
aF823.0
aF839.0
aF823.0
aF809.0
aF833.0
aF806.0
aF812.0
aF828.0
aF834.0
aF828.0
asS'workers'
p27
I7
sS'gamma'
p28
F1.0
sS'vcount'
p29
I1000
s.