(dp0
S'niter'
p1
I100
sS'v_ad'
p2
(lp3
I100
aI100
aI100
aI100
aI100
aI100
aI100
aI100
aI100
aI100
aI100
aI100
aI100
aI100
aI100
aI100
aI100
aI100
aI100
aI100
aI100
aI100
aI100
aI100
aI100
aI100
aI100
aI100
aI100
aI100
aI100
aI100
aI100
aI100
aI100
aI100
aI100
aI100
aI100
aI100
aI100
aI100
aI100
aI100
aI100
aI100
aI100
aI100
aI100
aI100
aI100
aI100
aI100
aI100
aI100
aI100
aI100
aI100
aI100
aI100
aI100
aI100
aI100
aI100
aI100
aI100
aI100
aI100
aI100
aI100
aI100
aI100
aI100
aI100
aI100
aI100
aI100
aI100
aI100
aI100
aI100
aI100
aI100
aI100
aI100
aI100
aI100
aI100
aI100
aI100
aI100
aI100
aI100
aI100
aI100
aI100
aI100
aI100
aI100
aI100
asS'trans'
p4
F0.6892001655525245
sS'ecount'
p5
I45990
sS'name'
p6
S'SNAP_FB_1000'
p7
sS't_m'
p8
I2
sS'v_nonad_g'
p9
(lp10
I145
aI7
aI342
aI127
aI293
aI162
aI284
aI66
aI431
aI84
aI396
aI214
aI382
aI306
aI208
aI100
aI682
aI507
aI392
aI644
aI152
aI335
aI621
aI579
aI76
aI39
aI483
aI622
aI619
aI655
aI902
aI159
aI878
aI760
aI267
aI355
aI650
aI647
aI449
aI749
aI494
aI161
aI714
aI365
aI305
aI665
aI497
aI510
aI870
aI713
aI24
aI479
aI967
aI484
aI744
aI453
aI787
aI315
aI356
aI378
aI712
aI535
aI841
aI788
aI893
aI923
aI968
aI925
aI434
aI290
aI903
aI776
aI478
aI471
aI959
aI726
aI450
aI88
aI620
aI916
aI480
aI755
aI734
aI658
aI822
aI751
aI53
aI705
aI927
aI846
aI768
aI597
aI978
aI542
aI659
aI594
aI676
aI799
aI674
aI994
asS'pedge'
p11
F0.05
sS'r_ad'
p12
(lp13
F589.0
aF624.0
aF626.0
aF619.0
aF605.0
aF623.0
aF592.0
aF598.0
aF613.0
aF605.0
aF608.0
aF576.0
aF603.0
aF593.0
aF625.0
aF579.0
aF589.0
aF605.0
aF591.0
aF605.0
aF599.0
aF580.0
aF598.0
aF559.0
aF601.0
aF627.0
aF593.0
aF595.0
aF611.0
aF629.0
aF596.0
aF615.0
aF613.0
aF614.0
aF579.0
aF618.0
aF615.0
aF592.0
aF620.0
aF615.0
aF582.0
aF601.0
aF614.0
aF583.0
aF616.0
aF602.0
aF613.0
aF579.0
aF602.0
aF599.0
aF623.0
aF607.0
aF600.0
aF589.0
aF580.0
aF609.0
aF598.0
aF606.0
aF562.0
aF583.0
aF632.0
aF652.0
aF602.0
aF609.0
aF632.0
aF597.0
aF599.0
aF602.0
aF588.0
aF606.0
aF614.0
aF595.0
aF572.0
aF641.0
aF593.0
aF599.0
aF643.0
aF589.0
aF583.0
aF614.0
aF593.0
aF611.0
aF609.0
aF609.0
aF574.0
aF587.0
aF601.0
aF585.0
aF589.0
aF582.0
aF581.0
aF587.0
aF574.0
aF595.0
aF607.0
aF611.0
aF621.0
aF583.0
aF616.0
aF587.0
asS'v_nonad_rg'
p14
(lp15
I80
aI594
aI497
aI162
aI385
aI392
aI84
aI76
aI91
aI161
aI88
aI917
aI674
aI744
aI682
aI145
aI584
aI382
aI434
aI597
aI23
aI480
aI655
aI478
aI431
aI256
aI749
aI152
aI274
aI751
aI644
aI635
aI959
aI622
aI363
aI396
aI495
aI378
aI286
aI510
aI923
aI705
aI787
aI288
aI503
aI287
aI658
aI479
aI872
aI822
aI451
aI453
aI909
aI267
aI925
aI903
aI968
aI214
aI571
aI816
aI39
aI98
aI893
aI268
aI365
aI873
aI397
aI579
aI713
aI841
aI426
aI961
aI450
aI943
aI89
aI315
aI66
aI760
aI432
aI208
aI587
aI494
aI735
aI306
aI886
aI800
aI621
aI366
aI927
aI871
aI43
aI542
aI707
aI127
aI425
aI907
aI51
aI449
aI765
aI189
asS'nsim_ad'
p16
I1000
sS'git'
p17
S'fcb943d'
p18
sS'kratio'
p19
I10
sS'r_nonad_g'
p20
(lp21
F607.0
aF644.0
aF640.0
aF635.0
aF619.0
aF633.0
aF585.0
aF592.0
aF621.0
aF618.0
aF620.0
aF597.0
aF603.0
aF609.0
aF642.0
aF610.0
aF592.0
aF630.0
aF600.0
aF627.0
aF624.0
aF577.0
aF604.0
aF595.0
aF634.0
aF642.0
aF584.0
aF628.0
aF635.0
aF618.0
aF622.0
aF629.0
aF624.0
aF616.0
aF610.0
aF621.0
aF605.0
aF599.0
aF634.0
aF628.0
aF622.0
aF606.0
aF619.0
aF609.0
aF631.0
aF620.0
aF615.0
aF618.0
aF587.0
aF590.0
aF624.0
aF614.0
aF610.0
aF617.0
aF601.0
aF612.0
aF610.0
aF592.0
aF591.0
aF608.0
aF629.0
aF648.0
aF633.0
aF628.0
aF610.0
aF591.0
aF611.0
aF598.0
aF604.0
aF630.0
aF598.0
aF628.0
aF563.0
aF648.0
aF600.0
aF588.0
aF624.0
aF582.0
aF608.0
aF600.0
aF595.0
aF622.0
aF610.0
aF604.0
aF578.0
aF601.0
aF611.0
aF606.0
aF623.0
aF589.0
aF594.0
aF629.0
aF631.0
aF563.0
aF609.0
aF617.0
aF637.0
aF598.0
aF604.0
aF622.0
asS'nsim_nonad'
p22
I10000
sS't_h'
p23
I5
sS't_s'
p24
I42
sS'r_nonad_rg'
p25
(lp26
F585.0
aF615.0
aF618.0
aF600.0
aF607.0
aF574.0
aF570.0
aF575.0
aF598.0
aF600.0
aF597.0
aF566.0
aF581.0
aF576.0
aF598.0
aF578.0
aF578.0
aF597.0
aF551.0
aF587.0
aF610.0
aF555.0
aF568.0
aF563.0
aF608.0
aF596.0
aF567.0
aF587.0
aF594.0
aF587.0
aF594.0
aF596.0
aF597.0
aF583.0
aF566.0
aF615.0
aF571.0
aF563.0
aF600.0
aF582.0
aF586.0
aF584.0
aF592.0
aF569.0
aF606.0
aF576.0
aF602.0
aF568.0
aF583.0
aF569.0
aF596.0
aF617.0
aF594.0
aF559.0
aF575.0
aF585.0
aF579.0
aF563.0
aF570.0
aF592.0
aF614.0
aF604.0
aF613.0
aF584.0
aF577.0
aF577.0
aF585.0
aF549.0
aF558.0
aF616.0
aF583.0
aF595.0
aF550.0
aF602.0
aF587.0
aF553.0
aF618.0
aF551.0
aF594.0
aF584.0
aF571.0
aF573.0
aF589.0
aF583.0
aF554.0
aF589.0
aF587.0
aF596.0
aF571.0
aF561.0
aF540.0
aF594.0
aF574.0
aF559.0
aF575.0
aF603.0
aF599.0
aF567.0
aF569.0
aF570.0
asS'workers'
p27
I7
sS'gamma'
p28
F1.0
sS'vcount'
p29
I1000
s.