(dp0
S'niter'
p1
I100
sS'v_ad'
p2
(lp3
I100
aI100
aI100
aI100
aI100
aI100
aI100
aI100
aI100
aI100
aI100
aI100
aI100
aI100
aI100
aI100
aI100
aI100
aI100
aI100
aI100
aI100
aI100
aI100
aI100
aI100
aI100
aI100
aI100
aI100
aI100
aI100
aI100
aI100
aI100
aI100
aI100
aI100
aI100
aI100
aI100
aI100
aI100
aI100
aI100
aI100
aI100
aI100
aI100
aI100
aI100
aI100
aI100
aI100
aI100
aI100
aI100
aI100
aI100
aI100
aI100
aI100
aI100
aI100
aI100
aI100
aI100
aI100
aI100
aI100
aI100
aI100
aI100
aI100
aI100
aI100
aI100
aI100
aI100
aI100
aI100
aI100
aI100
aI100
aI100
aI100
aI100
aI100
aI100
aI100
aI100
aI100
aI100
aI100
aI100
aI100
aI100
aI100
aI100
aI100
asS'trans'
p4
F0.6892001655525245
sS'ecount'
p5
I45990
sS'name'
p6
S'SNAP_FB_1000'
p7
sS't_m'
p8
I26
sS'v_nonad_g'
p9
(lp10
I76
aI7
aI5
aI84
aI24
aI145
aI53
aI8
aI127
aI66
aI51
aI88
aI43
aI100
aI39
aI67
aI56
aI152
aI162
aI48
aI214
aI35
aI98
aI208
aI23
aI159
aI89
aI342
aI161
aI14
aI80
aI306
aI293
aI9
aI36
aI268
aI77
aI83
aI249
aI206
aI267
aI392
aI335
aI355
aI315
aI290
aI365
aI189
aI483
aI286
aI128
aI307
aI274
aI380
aI163
aI284
aI91
aI52
aI256
aI231
aI193
aI478
aI305
aI190
aI396
aI378
aI382
aI287
aI484
aI366
aI431
aI241
aI453
aI450
aI254
aI204
aI449
aI168
aI280
aI497
aI471
aI507
aI310
aI479
aI494
aI166
aI434
aI451
aI312
aI156
aI535
aI385
aI622
aI37
aI566
aI579
aI621
aI480
aI288
aI509
asS'pedge'
p11
F0.01
sS'r_ad'
p12
(lp13
F151.0
aF155.0
aF139.0
aF159.0
aF143.0
aF146.0
aF150.0
aF137.0
aF138.0
aF137.0
aF161.0
aF120.0
aF141.0
aF151.0
aF170.0
aF172.0
aF147.0
aF136.0
aF148.0
aF145.0
aF166.0
aF154.0
aF147.0
aF133.0
aF140.0
aF128.0
aF146.0
aF125.0
aF135.0
aF160.0
aF140.0
aF135.0
aF167.0
aF149.0
aF134.0
aF161.0
aF155.0
aF139.0
aF159.0
aF159.0
aF163.0
aF158.0
aF142.0
aF142.0
aF94.0
aF142.0
aF148.0
aF143.0
aF141.0
aF145.0
aF139.0
aF152.0
aF144.0
aF127.0
aF142.0
aF156.0
aF142.0
aF135.0
aF132.0
aF166.0
aF165.0
aF154.0
aF153.0
aF137.0
aF142.0
aF154.0
aF148.0
aF131.0
aF164.0
aF159.0
aF135.0
aF137.0
aF158.0
aF143.0
aF127.0
aF137.0
aF154.0
aF153.0
aF123.0
aF139.0
aF133.0
aF150.0
aF148.0
aF144.0
aF163.0
aF129.0
aF157.0
aF131.0
aF154.0
aF162.0
aF126.0
aF146.0
aF146.0
aF136.0
aF149.0
aF145.0
aF167.0
aF148.0
aF155.0
aF166.0
asS'v_nonad_rg'
p14
(lp15
I8
aI168
aI35
aI84
aI158
aI34
aI24
aI159
aI189
aI248
aI434
aI107
aI193
aI181
aI190
aI453
aI274
aI67
aI80
aI115
aI156
aI268
aI103
aI342
aI5
aI71
aI479
aI287
aI310
aI480
aI204
aI352
aI379
aI23
aI256
aI89
aI230
aI484
aI48
aI118
aI285
aI776
aI466
aI166
aI495
aI392
aI449
aI152
aI472
aI209
aI503
aI43
aI507
aI366
aI260
aI284
aI157
aI100
aI416
aI396
aI293
aI413
aI254
aI355
aI14
aI370
aI451
aI127
aI305
aI431
aI427
aI452
aI206
aI347
aI309
aI306
aI53
aI77
aI454
aI51
aI684
aI249
aI37
aI145
aI517
aI902
aI335
aI315
aI363
aI29
aI621
aI491
aI494
aI208
aI302
aI404
aI644
aI83
aI486
aI566
asS'nsim_ad'
p16
I1000
sS'git'
p17
S'fcb943d'
p18
sS'kratio'
p19
I10
sS'r_nonad_g'
p20
(lp21
F150.0
aF156.0
aF155.0
aF154.0
aF167.0
aF162.0
aF136.0
aF146.0
aF155.0
aF133.0
aF164.0
aF133.0
aF137.0
aF136.0
aF168.0
aF152.0
aF122.0
aF149.0
aF162.0
aF151.0
aF158.0
aF158.0
aF164.0
aF143.0
aF146.0
aF148.0
aF156.0
aF129.0
aF146.0
aF169.0
aF121.0
aF140.0
aF153.0
aF161.0
aF155.0
aF151.0
aF152.0
aF147.0
aF157.0
aF181.0
aF167.0
aF180.0
aF129.0
aF146.0
aF123.0
aF149.0
aF153.0
aF135.0
aF159.0
aF128.0
aF128.0
aF165.0
aF157.0
aF133.0
aF146.0
aF167.0
aF142.0
aF144.0
aF164.0
aF150.0
aF152.0
aF134.0
aF162.0
aF150.0
aF133.0
aF160.0
aF157.0
aF132.0
aF163.0
aF163.0
aF143.0
aF155.0
aF153.0
aF157.0
aF136.0
aF135.0
aF156.0
aF159.0
aF151.0
aF151.0
aF168.0
aF161.0
aF169.0
aF179.0
aF142.0
aF135.0
aF155.0
aF142.0
aF155.0
aF158.0
aF158.0
aF158.0
aF151.0
aF137.0
aF151.0
aF161.0
aF182.0
aF144.0
aF147.0
aF161.0
asS'nsim_nonad'
p22
I10000
sS't_h'
p23
I19
sS't_s'
p24
I27
sS'r_nonad_rg'
p25
(lp26
F149.0
aF139.0
aF129.0
aF132.0
aF137.0
aF154.0
aF126.0
aF125.0
aF147.0
aF139.0
aF144.0
aF112.0
aF136.0
aF140.0
aF156.0
aF138.0
aF133.0
aF133.0
aF166.0
aF150.0
aF143.0
aF132.0
aF157.0
aF126.0
aF124.0
aF117.0
aF120.0
aF103.0
aF98.0
aF155.0
aF115.0
aF114.0
aF142.0
aF140.0
aF147.0
aF143.0
aF142.0
aF135.0
aF133.0
aF140.0
aF153.0
aF143.0
aF123.0
aF146.0
aF124.0
aF144.0
aF130.0
aF128.0
aF131.0
aF101.0
aF112.0
aF126.0
aF154.0
aF117.0
aF140.0
aF135.0
aF132.0
aF132.0
aF146.0
aF136.0
aF145.0
aF129.0
aF142.0
aF141.0
aF139.0
aF129.0
aF130.0
aF110.0
aF153.0
aF129.0
aF124.0
aF130.0
aF136.0
aF137.0
aF126.0
aF126.0
aF137.0
aF137.0
aF143.0
aF157.0
aF143.0
aF136.0
aF146.0
aF148.0
aF132.0
aF122.0
aF135.0
aF106.0
aF134.0
aF147.0
aF135.0
aF128.0
aF117.0
aF135.0
aF135.0
aF143.0
aF158.0
aF143.0
aF139.0
aF137.0
asS'workers'
p27
I7
sS'gamma'
p28
F1.0
sS'vcount'
p29
I1000
s.