(dp0
S'niter'
p1
I100
sS'v_ad'
p2
(lp3
I66
aI69
aI62
aI68
aI69
aI75
aI63
aI72
aI64
aI67
aI62
aI64
aI69
aI67
aI69
aI55
aI68
aI58
aI76
aI70
aI74
aI75
aI64
aI69
aI69
aI79
aI75
aI68
aI79
aI84
aI68
aI77
aI76
aI72
aI61
aI65
aI72
aI70
aI80
aI61
aI73
aI64
aI69
aI60
aI63
aI53
aI63
aI71
aI70
aI79
aI72
aI70
aI70
aI71
aI78
aI72
aI58
aI67
aI73
aI74
aI70
aI71
aI70
aI64
aI58
aI66
aI64
aI63
aI76
aI71
aI78
aI71
aI74
aI57
aI70
aI62
aI66
aI72
aI69
aI72
aI65
aI68
aI75
aI67
aI69
aI69
aI77
aI63
aI65
aI73
aI64
aI72
aI77
aI68
aI68
aI64
aI76
aI83
aI64
aI70
asS'trans'
p4
F0.6892001655525245
sS'ecount'
p5
I45990
sS'name'
p6
S'SNAP_FB_1000'
p7
sS't_m'
p8
I59
sS'v_nonad_g'
p9
(lp10
I145
aI431
aI293
aI644
aI396
aI342
aI978
aI768
aI682
aI7
aI579
aI935
aI689
aI760
aI916
aI787
aI208
aI841
aI633
aI902
aI886
aI870
aI799
aI483
aI992
aI925
aI866
aI776
aI926
aI800
aI267
aI507
aI655
aI479
aI979
aI392
aI382
aI378
aI453
aI875
asS'pedge'
p11
F0.3
sS'r_ad'
p12
(lp13
F912.0
aF908.0
aF915.0
aF912.0
aF908.0
aF907.0
aF918.0
aF907.0
aF913.0
aF916.0
aF917.0
aF912.0
aF910.0
aF909.0
aF913.0
aF917.0
aF907.0
aF925.0
aF900.0
aF910.0
aF909.0
aF902.0
aF916.0
aF911.0
aF911.0
aF901.0
aF909.0
aF913.0
aF905.0
aF896.0
aF911.0
aF899.0
aF905.0
aF904.0
aF922.0
aF917.0
aF904.0
aF909.0
aF905.0
aF917.0
aF909.0
aF917.0
aF909.0
aF918.0
aF917.0
aF926.0
aF911.0
aF904.0
aF907.0
aF907.0
aF907.0
aF911.0
aF911.0
aF904.0
aF901.0
aF913.0
aF927.0
aF914.0
aF900.0
aF907.0
aF908.0
aF905.0
aF907.0
aF916.0
aF918.0
aF915.0
aF916.0
aF917.0
aF900.0
aF908.0
aF901.0
aF906.0
aF909.0
aF922.0
aF908.0
aF913.0
aF917.0
aF907.0
aF910.0
aF908.0
aF916.0
aF907.0
aF907.0
aF912.0
aF909.0
aF910.0
aF906.0
aF919.0
aF911.0
aF907.0
aF914.0
aF906.0
aF903.0
aF910.0
aF913.0
aF913.0
aF910.0
aF900.0
aF917.0
aF914.0
asS'v_nonad_rg'
p14
(lp15
I80
aI674
aI916
aI214
aI483
aI340
aI902
aI622
aI967
aI306
aI940
aI872
aI425
aI726
aI753
aI768
aI713
aI88
aI342
aI926
aI893
aI749
aI365
aI284
aI145
aI378
aI392
aI355
aI335
aI869
aI927
aI834
aI760
aI978
aI650
aI866
aI886
aI875
aI800
aI453
aI497
aI838
aI712
aI776
aI989
aI208
aI480
aI841
aI621
aI979
aI267
aI293
aI714
aI507
aI870
aI734
aI840
aI431
aI992
aI899
aI682
aI633
aI935
aI396
aI644
aI787
aI689
aI799
asS'nsim_ad'
p16
I1000
sS'git'
p17
S'fcb943d'
p18
sS'kratio'
p19
I10
sS'r_nonad_g'
p20
(lp21
F924.0
aF926.0
aF932.0
aF926.0
aF927.0
aF921.0
aF919.0
aF923.0
aF919.0
aF925.0
aF927.0
aF926.0
aF923.0
aF918.0
aF915.0
aF923.0
aF922.0
aF923.0
aF920.0
aF918.0
aF921.0
aF915.0
aF926.0
aF920.0
aF924.0
aF922.0
aF919.0
aF917.0
aF920.0
aF912.0
aF924.0
aF915.0
aF904.0
aF919.0
aF931.0
aF925.0
aF911.0
aF919.0
aF911.0
aF933.0
aF922.0
aF927.0
aF925.0
aF916.0
aF930.0
aF927.0
aF907.0
aF912.0
aF918.0
aF923.0
aF917.0
aF915.0
aF926.0
aF927.0
aF925.0
aF920.0
aF931.0
aF926.0
aF909.0
aF934.0
aF914.0
aF913.0
aF922.0
aF932.0
aF917.0
aF912.0
aF929.0
aF931.0
aF925.0
aF919.0
aF925.0
aF923.0
aF924.0
aF929.0
aF919.0
aF920.0
aF930.0
aF921.0
aF914.0
aF928.0
aF935.0
aF912.0
aF920.0
aF926.0
aF921.0
aF920.0
aF925.0
aF923.0
aF926.0
aF923.0
aF929.0
aF913.0
aF923.0
aF931.0
aF922.0
aF921.0
aF924.0
aF916.0
aF933.0
aF932.0
asS'nsim_nonad'
p22
I10000
sS't_h'
p23
I0
sS't_s'
p24
I14
sS'r_nonad_rg'
p25
(lp26
F905.0
aF902.0
aF906.0
aF902.0
aF904.0
aF904.0
aF909.0
aF903.0
aF909.0
aF907.0
aF906.0
aF909.0
aF904.0
aF902.0
aF908.0
aF905.0
aF908.0
aF909.0
aF901.0
aF906.0
aF910.0
aF906.0
aF909.0
aF905.0
aF905.0
aF898.0
aF903.0
aF903.0
aF907.0
aF894.0
aF904.0
aF904.0
aF900.0
aF906.0
aF906.0
aF906.0
aF893.0
aF901.0
aF897.0
aF909.0
aF902.0
aF905.0
aF902.0
aF907.0
aF906.0
aF910.0
aF898.0
aF905.0
aF906.0
aF905.0
aF901.0
aF896.0
aF910.0
aF904.0
aF898.0
aF906.0
aF910.0
aF909.0
aF896.0
aF904.0
aF899.0
aF895.0
aF900.0
aF908.0
aF904.0
aF907.0
aF907.0
aF914.0
aF906.0
aF902.0
aF902.0
aF907.0
aF905.0
aF910.0
aF909.0
aF903.0
aF905.0
aF901.0
aF902.0
aF911.0
aF911.0
aF893.0
aF899.0
aF905.0
aF908.0
aF906.0
aF904.0
aF914.0
aF899.0
aF900.0
aF909.0
aF900.0
aF903.0
aF912.0
aF908.0
aF909.0
aF902.0
aF902.0
aF915.0
aF911.0
asS'workers'
p27
I7
sS'gamma'
p28
F1.0
sS'vcount'
p29
I1000
s.