(dp0
S'niter'
p1
I100
sS'v_ad'
p2
(lp3
I333
aI333
aI333
aI333
aI333
aI333
aI333
aI333
aI333
aI333
aI333
aI333
aI333
aI333
aI333
aI333
aI333
aI333
aI333
aI333
aI333
aI333
aI333
aI333
aI333
aI333
aI333
aI333
aI333
aI333
aI333
aI333
aI333
aI333
aI333
aI333
aI333
aI333
aI333
aI333
aI333
aI333
aI333
aI333
aI333
aI333
aI333
aI333
aI333
aI333
aI333
aI333
aI333
aI333
aI333
aI333
aI333
aI333
aI333
aI333
aI333
aI333
aI333
aI333
aI333
aI333
aI333
aI333
aI333
aI333
aI333
aI333
aI333
aI333
aI333
aI333
aI333
aI333
aI333
aI333
aI333
aI333
aI333
aI333
aI333
aI333
aI333
aI333
aI333
aI333
aI333
aI333
aI333
aI333
aI333
aI333
aI333
aI333
aI333
aI333
asS'trans'
p4
F0.8047941557912676
sS'ecount'
p5
I13033
sS'name'
p6
S'SNAP_GR_1000'
p7
sS't_m'
p8
I39
sS'v_nonad_g'
p9
(lp10
I8
aI12
aI105
aI75
aI127
aI172
aI4
aI61
aI89
aI74
aI151
aI136
aI184
aI152
aI149
aI40
aI177
aI427
aI305
aI130
aI319
aI249
aI120
aI239
aI41
aI145
aI167
aI222
aI129
aI82
aI144
aI368
aI153
aI108
aI143
aI299
aI253
aI306
aI257
aI466
aI168
aI163
aI313
aI174
aI171
aI389
aI364
aI380
aI162
aI418
aI103
aI797
aI340
aI150
aI384
aI140
aI530
aI422
aI285
aI497
aI214
aI142
aI242
aI187
aI218
aI221
aI395
aI312
aI265
aI468
aI243
aI444
aI413
aI431
aI708
aI350
aI147
aI289
aI801
aI428
aI403
aI128
aI315
aI339
aI325
aI741
aI469
aI293
aI479
aI297
aI154
aI131
aI344
aI146
aI283
aI376
aI337
aI318
aI275
aI563
aI505
aI209
aI657
aI87
aI559
aI160
aI292
aI432
aI255
aI533
aI274
aI518
aI499
aI511
aI298
aI417
aI541
aI461
aI248
aI844
aI640
aI159
aI309
aI599
aI419
aI436
aI544
aI685
aI668
aI808
aI181
aI195
aI281
aI448
aI311
aI201
aI321
aI371
aI478
aI394
aI357
aI500
aI388
aI939
aI760
aI393
aI506
aI237
aI256
aI695
aI556
aI412
aI604
aI682
aI926
aI254
aI363
aI353
aI345
aI588
aI526
aI521
aI635
aI802
aI430
aI445
aI382
aI290
aI491
aI753
aI644
aI853
aI647
aI929
aI933
aI286
aI707
aI732
aI558
aI955
aI338
aI366
aI449
aI860
aI751
aI77
aI831
aI516
aI411
aI987
aI816
aI148
aI632
aI634
aI833
aI477
aI446
aI950
aI459
aI747
aI825
aI910
aI953
aI715
aI391
aI854
aI581
aI702
aI976
aI645
aI978
aI502
aI849
aI661
aI876
aI406
aI938
aI947
aI737
aI789
aI847
aI451
aI759
aI666
aI595
aI834
aI818
aI739
aI757
aI229
aI966
aI901
aI513
aI838
aI561
aI864
aI951
aI91
aI722
aI839
aI582
aI467
aI975
aI827
aI946
aI880
aI618
aI336
aI752
aI852
aI416
aI785
aI986
aI788
aI930
aI631
aI985
aI515
aI924
aI508
aI696
aI875
aI679
aI734
aI921
aI779
aI959
aI977
aI997
aI279
aI484
aI641
aI435
aI750
aI867
aI351
aI762
aI810
aI712
aI845
aI593
aI689
aI891
aI973
aI185
aI830
aI974
aI699
aI885
aI968
aI765
aI611
aI613
aI191
aI342
aI988
aI383
aI803
aI836
aI703
aI574
aI487
asS'pedge'
p11
F0.05
sS'r_ad'
p12
(lp13
F288.0
aF254.0
aF258.0
aF285.0
aF305.0
aF310.0
aF271.0
aF272.0
aF287.0
aF290.0
aF283.0
aF278.0
aF275.0
aF273.0
aF265.0
aF284.0
aF290.0
aF271.0
aF316.0
aF261.0
aF280.0
aF283.0
aF281.0
aF286.0
aF277.0
aF275.0
aF302.0
aF282.0
aF252.0
aF259.0
aF251.0
aF297.0
aF293.0
aF308.0
aF266.0
aF267.0
aF293.0
aF272.0
aF288.0
aF273.0
aF286.0
aF268.0
aF270.0
aF294.0
aF278.0
aF272.0
aF289.0
aF272.0
aF285.0
aF277.0
aF287.0
aF273.0
aF261.0
aF286.0
aF298.0
aF263.0
aF292.0
aF286.0
aF304.0
aF277.0
aF285.0
aF279.0
aF304.0
aF293.0
aF265.0
aF292.0
aF261.0
aF280.0
aF325.0
aF271.0
aF293.0
aF283.0
aF281.0
aF292.0
aF287.0
aF310.0
aF288.0
aF273.0
aF286.0
aF274.0
aF302.0
aF277.0
aF256.0
aF248.0
aF268.0
aF252.0
aF287.0
aF297.0
aF279.0
aF303.0
aF273.0
aF261.0
aF266.0
aF272.0
aF286.0
aF308.0
aF288.0
aF247.0
aF287.0
aF291.0
asS'v_nonad_rg'
p14
(lp15
I59
aI113
aI406
aI201
aI580
aI244
aI58
aI513
aI32
aI210
aI199
aI148
aI204
aI330
aI361
aI522
aI223
aI96
aI25
aI527
aI391
aI279
aI528
aI315
aI142
aI313
aI75
aI684
aI257
aI128
aI439
aI376
aI915
aI119
aI214
aI339
aI296
aI255
aI482
aI459
aI302
aI741
aI66
aI407
aI778
aI566
aI319
aI188
aI655
aI437
aI475
aI131
aI510
aI234
aI474
aI193
aI209
aI309
aI252
aI479
aI312
aI267
aI129
aI161
aI187
aI327
aI658
aI322
aI747
aI934
aI338
aI476
aI227
aI685
aI305
aI367
aI205
aI304
aI829
aI624
aI249
aI162
aI353
aI228
aI926
aI431
aI514
aI292
aI352
aI380
aI397
aI427
aI491
aI777
aI325
aI559
aI387
aI195
aI840
aI809
aI280
aI441
aI628
aI156
aI310
aI194
aI237
aI802
aI366
aI486
aI509
aI164
aI632
aI238
aI203
aI755
aI419
aI576
aI534
aI150
aI571
aI356
aI346
aI686
aI963
aI104
aI730
aI435
aI393
aI875
aI370
aI798
aI463
aI363
aI620
aI266
aI377
aI160
aI344
aI565
aI275
aI614
aI446
aI623
aI378
aI365
aI820
aI927
aI540
aI239
aI969
aI153
aI928
aI552
aI130
aI526
aI721
aI537
aI283
aI470
aI733
aI763
aI530
aI748
aI248
aI602
aI562
aI952
aI421
aI745
aI525
aI589
aI311
aI691
aI819
aI450
aI690
aI713
aI752
aI984
aI870
aI825
aI888
aI546
aI653
aI171
aI337
aI978
aI274
aI444
aI919
aI438
aI542
aI453
aI490
aI943
aI894
aI974
aI588
aI500
aI955
aI635
aI833
aI823
aI163
aI430
aI868
aI980
aI973
aI342
aI598
aI613
aI321
aI594
aI983
aI968
aI159
aI689
aI253
aI291
aI368
aI182
aI512
aI178
aI828
aI871
aI944
aI981
aI222
aI605
aI469
aI82
aI515
aI185
aI549
aI250
aI999
aI317
aI398
aI925
aI850
aI885
aI445
aI911
aI170
aI945
aI371
aI704
aI787
aI606
aI644
aI725
aI449
aI550
aI603
aI369
aI953
aI832
aI852
aI618
aI905
aI872
aI715
aI650
aI765
aI804
aI673
aI693
aI731
aI382
aI538
aI782
aI508
aI688
aI749
aI695
aI979
aI350
aI581
aI900
aI967
aI557
aI779
aI889
aI458
aI883
aI357
aI754
aI667
aI567
aI708
aI714
aI423
aI586
aI484
aI909
aI861
aI807
aI436
aI817
aI646
aI893
aI970
aI857
aI892
aI290
aI897
aI890
aI539
aI960
aI781
aI947
aI697
aI812
aI524
aI869
aI834
aI634
aI949
aI638
aI631
aI792
aI701
aI320
aI803
aI856
aI948
aI660
aI917
aI912
aI489
aI619
aI744
asS'nsim_ad'
p16
I1000
sS'git'
p17
S'49779d6'
p18
sS'kratio'
p19
I3
sS'r_nonad_g'
p20
(lp21
F226.0
aF190.0
aF211.0
aF243.0
aF224.0
aF230.0
aF221.0
aF228.0
aF241.0
aF243.0
aF231.0
aF238.0
aF233.0
aF234.0
aF228.0
aF228.0
aF253.0
aF242.0
aF266.0
aF166.0
aF224.0
aF235.0
aF215.0
aF233.0
aF220.0
aF246.0
aF241.0
aF229.0
aF209.0
aF208.0
aF228.0
aF240.0
aF258.0
aF243.0
aF234.0
aF220.0
aF211.0
aF212.0
aF242.0
aF227.0
aF244.0
aF215.0
aF215.0
aF252.0
aF232.0
aF232.0
aF228.0
aF209.0
aF250.0
aF231.0
aF224.0
aF203.0
aF240.0
aF208.0
aF246.0
aF214.0
aF233.0
aF226.0
aF245.0
aF223.0
aF209.0
aF232.0
aF239.0
aF223.0
aF206.0
aF229.0
aF217.0
aF252.0
aF265.0
aF215.0
aF250.0
aF240.0
aF249.0
aF247.0
aF222.0
aF255.0
aF258.0
aF222.0
aF209.0
aF225.0
aF235.0
aF235.0
aF202.0
aF227.0
aF215.0
aF235.0
aF235.0
aF239.0
aF216.0
aF233.0
aF247.0
aF221.0
aF200.0
aF194.0
aF223.0
aF244.0
aF236.0
aF206.0
aF233.0
aF188.0
asS'nsim_nonad'
p22
I10000
sS't_h'
p23
I6
sS't_s'
p24
I6
sS'r_nonad_rg'
p25
(lp26
F221.0
aF178.0
aF201.0
aF250.0
aF220.0
aF239.0
aF215.0
aF224.0
aF219.0
aF262.0
aF208.0
aF240.0
aF184.0
aF232.0
aF229.0
aF214.0
aF227.0
aF240.0
aF234.0
aF173.0
aF230.0
aF219.0
aF203.0
aF197.0
aF217.0
aF241.0
aF238.0
aF221.0
aF210.0
aF217.0
aF222.0
aF238.0
aF231.0
aF249.0
aF244.0
aF191.0
aF223.0
aF206.0
aF229.0
aF209.0
aF219.0
aF205.0
aF221.0
aF243.0
aF214.0
aF213.0
aF198.0
aF205.0
aF230.0
aF222.0
aF230.0
aF227.0
aF220.0
aF196.0
aF238.0
aF221.0
aF227.0
aF241.0
aF214.0
aF209.0
aF236.0
aF222.0
aF224.0
aF233.0
aF194.0
aF222.0
aF217.0
aF221.0
aF242.0
aF221.0
aF232.0
aF224.0
aF234.0
aF224.0
aF229.0
aF244.0
aF244.0
aF220.0
aF233.0
aF216.0
aF217.0
aF247.0
aF201.0
aF202.0
aF198.0
aF194.0
aF235.0
aF225.0
aF212.0
aF217.0
aF211.0
aF199.0
aF209.0
aF219.0
aF228.0
aF239.0
aF230.0
aF206.0
aF229.0
aF241.0
asS'workers'
p27
I7
sS'gamma'
p28
F1.0
sS'vcount'
p29
I1000
s.