(dp0
S'niter'
p1
I100
sS'v_ad'
p2
(lp3
I184
aI159
aI167
aI176
aI190
aI148
aI170
aI170
aI180
aI152
aI171
aI192
aI159
aI180
aI159
aI184
aI168
aI155
aI157
aI160
aI184
aI169
aI136
aI162
aI189
aI171
aI172
aI169
aI180
aI159
aI141
aI170
aI174
aI162
aI143
aI157
aI196
aI176
aI148
aI182
aI196
aI166
aI158
aI191
aI154
aI149
aI153
aI181
aI184
aI159
aI172
aI177
aI176
aI157
aI156
aI187
aI162
aI158
aI145
aI151
aI183
aI178
aI183
aI149
aI180
aI145
aI151
aI170
aI173
aI161
aI157
aI167
aI171
aI180
aI156
aI168
aI165
aI166
aI162
aI171
aI162
aI159
aI168
aI172
aI190
aI170
aI172
aI171
aI195
aI177
aI152
aI160
aI156
aI166
aI187
aI162
aI151
aI170
aI159
aI174
asS'trans'
p4
F0.8047941557912676
sS'ecount'
p5
I13033
sS'name'
p6
S'SNAP_GR_1000'
p7
sS't_m'
p8
I24
sS'v_nonad_g'
p9
(lp10
I37
aI111
aI217
aI145
aI405
aI124
aI305
aI418
aI363
aI468
aI389
aI182
aI760
aI380
aI154
aI289
aI168
aI288
aI309
aI146
aI274
aI728
aI518
aI657
aI171
aI844
aI801
aI394
aI553
aI378
aI417
aI780
aI641
aI563
aI515
aI256
aI187
aI599
aI939
aI983
aI911
aI927
aI547
aI681
aI782
aI642
aI648
aI947
aI846
aI707
aI630
aI564
aI929
aI369
aI790
aI712
aI695
aI869
aI552
aI731
aI822
aI751
aI715
aI923
aI816
aI717
aI995
aI558
aI938
aI484
aI304
aI872
aI602
aI698
aI388
aI853
aI877
aI817
aI829
aI879
aI806
aI600
aI926
aI797
aI831
aI785
aI757
aI945
aI890
aI631
aI876
aI512
aI768
aI810
aI860
aI984
aI574
aI646
aI660
aI985
aI778
aI591
aI842
aI683
aI286
aI839
aI494
aI345
aI508
asS'pedge'
p11
F0.2
sS'r_ad'
p12
(lp13
F701.0
aF726.0
aF705.0
aF701.0
aF692.0
aF731.0
aF701.0
aF702.0
aF698.0
aF723.0
aF715.0
aF684.0
aF709.0
aF703.0
aF719.0
aF688.0
aF698.0
aF714.0
aF721.0
aF714.0
aF696.0
aF718.0
aF750.0
aF718.0
aF686.0
aF701.0
aF693.0
aF699.0
aF700.0
aF716.0
aF734.0
aF716.0
aF702.0
aF719.0
aF729.0
aF711.0
aF673.0
aF706.0
aF716.0
aF695.0
aF690.0
aF717.0
aF719.0
aF687.0
aF720.0
aF731.0
aF717.0
aF703.0
aF688.0
aF720.0
aF704.0
aF703.0
aF718.0
aF704.0
aF720.0
aF689.0
aF708.0
aF728.0
aF740.0
aF724.0
aF693.0
aF700.0
aF682.0
aF724.0
aF697.0
aF733.0
aF727.0
aF699.0
aF703.0
aF712.0
aF738.0
aF705.0
aF716.0
aF695.0
aF716.0
aF703.0
aF703.0
aF714.0
aF727.0
aF709.0
aF723.0
aF715.0
aF711.0
aF713.0
aF682.0
aF704.0
aF703.0
aF704.0
aF687.0
aF693.0
aF735.0
aF721.0
aF723.0
aF696.0
aF695.0
aF705.0
aF723.0
aF709.0
aF711.0
aF694.0
asS'v_nonad_rg'
p14
(lp15
I237
aI295
aI289
aI482
aI690
aI65
aI143
aI265
aI107
aI154
aI218
aI491
aI660
aI439
aI686
aI409
aI998
aI389
aI579
aI734
aI611
aI323
aI710
aI642
aI794
aI937
aI405
aI679
aI765
aI896
aI308
aI654
aI697
aI843
aI928
aI552
aI872
aI712
aI759
aI889
aI943
aI376
aI356
aI737
aI490
aI830
aI746
aI949
aI486
aI790
aI983
aI910
aI657
aI951
aI893
aI845
aI855
aI388
aI891
aI624
aI722
aI930
aI840
aI728
aI555
aI581
aI901
aI730
aI498
aI682
aI864
aI851
aI751
aI283
aI558
aI815
aI666
aI687
aI764
aI635
aI256
aI816
aI494
aI588
aI658
aI515
aI292
aI715
aI602
aI564
aI628
aI834
aI548
aI935
aI484
aI856
aI900
aI701
aI923
aI643
aI812
aI956
aI817
aI852
aI547
aI500
aI504
aI907
aI986
aI899
aI553
aI827
aI788
aI673
aI675
aI512
aI599
aI888
aI810
aI713
aI785
aI646
aI853
aI973
aI969
aI345
aI801
aI985
aI653
aI995
aI879
aI738
aI860
asS'nsim_ad'
p16
I1000
sS'git'
p17
S'49779d6'
p18
sS'kratio'
p19
I3
sS'r_nonad_g'
p20
(lp21
F633.0
aF648.0
aF654.0
aF633.0
aF618.0
aF661.0
aF639.0
aF633.0
aF591.0
aF659.0
aF648.0
aF589.0
aF631.0
aF636.0
aF648.0
aF643.0
aF643.0
aF648.0
aF640.0
aF641.0
aF631.0
aF636.0
aF667.0
aF628.0
aF616.0
aF635.0
aF639.0
aF610.0
aF654.0
aF645.0
aF678.0
aF636.0
aF626.0
aF634.0
aF668.0
aF639.0
aF574.0
aF584.0
aF641.0
aF608.0
aF642.0
aF646.0
aF646.0
aF626.0
aF646.0
aF658.0
aF640.0
aF592.0
aF633.0
aF626.0
aF630.0
aF624.0
aF658.0
aF645.0
aF635.0
aF639.0
aF626.0
aF657.0
aF658.0
aF652.0
aF624.0
aF633.0
aF633.0
aF648.0
aF628.0
aF644.0
aF661.0
aF620.0
aF634.0
aF637.0
aF666.0
aF633.0
aF641.0
aF648.0
aF647.0
aF633.0
aF631.0
aF651.0
aF630.0
aF646.0
aF634.0
aF619.0
aF665.0
aF638.0
aF593.0
aF625.0
aF640.0
aF641.0
aF642.0
aF606.0
aF654.0
aF664.0
aF626.0
aF614.0
aF634.0
aF631.0
aF659.0
aF649.0
aF638.0
aF610.0
asS'nsim_nonad'
p22
I10000
sS't_h'
p23
I1
sS't_s'
p24
I15
sS'r_nonad_rg'
p25
(lp26
F623.0
aF634.0
aF641.0
aF629.0
aF586.0
aF643.0
aF615.0
aF633.0
aF625.0
aF664.0
aF643.0
aF598.0
aF638.0
aF621.0
aF645.0
aF614.0
aF617.0
aF631.0
aF635.0
aF605.0
aF628.0
aF618.0
aF672.0
aF634.0
aF608.0
aF634.0
aF641.0
aF625.0
aF627.0
aF651.0
aF640.0
aF626.0
aF618.0
aF629.0
aF664.0
aF620.0
aF594.0
aF614.0
aF641.0
aF600.0
aF635.0
aF629.0
aF643.0
aF618.0
aF647.0
aF643.0
aF642.0
aF616.0
aF631.0
aF648.0
aF628.0
aF627.0
aF646.0
aF649.0
aF643.0
aF616.0
aF629.0
aF661.0
aF648.0
aF646.0
aF618.0
aF628.0
aF618.0
aF656.0
aF610.0
aF629.0
aF658.0
aF612.0
aF641.0
aF637.0
aF674.0
aF611.0
aF652.0
aF632.0
aF660.0
aF627.0
aF639.0
aF621.0
aF629.0
aF643.0
aF639.0
aF641.0
aF649.0
aF631.0
aF619.0
aF619.0
aF641.0
aF643.0
aF609.0
aF606.0
aF629.0
aF652.0
aF593.0
aF636.0
aF614.0
aF616.0
aF647.0
aF622.0
aF624.0
aF615.0
asS'workers'
p27
I7
sS'gamma'
p28
F1.0
sS'vcount'
p29
I1000
s.