(dp0
S'niter'
p1
I100
sS'v_ad'
p2
(lp3
I333
aI332
aI333
aI333
aI333
aI333
aI333
aI333
aI333
aI333
aI333
aI333
aI333
aI333
aI333
aI333
aI333
aI333
aI333
aI333
aI333
aI333
aI333
aI333
aI333
aI333
aI333
aI333
aI333
aI333
aI333
aI333
aI333
aI333
aI333
aI333
aI333
aI333
aI333
aI333
aI333
aI333
aI333
aI333
aI333
aI333
aI333
aI333
aI333
aI333
aI333
aI333
aI333
aI333
aI332
aI333
aI333
aI333
aI318
aI333
aI333
aI333
aI333
aI333
aI333
aI333
aI333
aI333
aI333
aI333
aI333
aI333
aI333
aI333
aI326
aI333
aI333
aI331
aI333
aI333
aI333
aI333
aI333
aI333
aI333
aI333
aI333
aI333
aI333
aI333
aI333
aI333
aI333
aI333
aI333
aI333
aI333
aI333
aI333
aI315
asS'trans'
p4
F0.8047941557912676
sS'ecount'
p5
I13033
sS'name'
p6
S'SNAP_GR_1000'
p7
sS't_m'
p8
I34
sS'v_nonad_g'
p9
(lp10
I0
aI61
aI110
aI127
aI75
aI212
aI397
aI177
aI136
aI305
aI40
aI239
aI129
aI130
aI153
aI144
aI299
aI174
aI168
aI389
aI441
aI41
aI306
aI380
aI171
aI340
aI143
aI347
aI383
aI437
aI253
aI243
aI497
aI439
aI603
aI162
aI163
aI207
aI221
aI418
aI103
aI444
aI289
aI199
aI242
aI187
aI288
aI82
aI292
aI857
aI313
aI309
aI801
aI479
aI178
aI413
aI428
aI403
aI339
aI657
aI518
aI146
aI550
aI128
aI318
aI563
aI283
aI275
aI131
aI140
aI154
aI576
aI844
aI209
aI628
aI541
aI337
aI182
aI419
aI640
aI297
aI499
aI394
aI511
aI619
aI939
aI665
aI505
aI293
aI579
aI256
aI685
aI388
aI668
aI544
aI635
aI648
aI357
aI469
aI120
aI695
aI257
aI274
aI412
aI181
aI757
aI825
aI395
aI448
aI926
aI959
aI929
aI682
aI933
aI588
aI711
aI727
aI558
aI751
aI707
aI816
aI371
aI387
aI846
aI559
aI533
aI586
aI660
aI410
aI159
aI647
aI658
aI393
aI715
aI717
aI689
aI338
aI449
aI461
aI591
aI644
aI254
aI581
aI984
aI834
aI860
aI833
aI753
aI716
aI599
aI938
aI789
aI353
aI516
aI978
aI675
aI870
aI987
aI634
aI471
aI286
aI829
aI976
aI849
aI417
aI595
aI864
aI947
aI698
aI876
aI779
aI951
aI955
aI901
aI839
aI912
aI888
aI788
aI785
aI557
aI808
aI945
aI487
aI759
aI998
aI827
aI319
aI446
aI696
aI650
aI838
aI641
aI345
aI985
aI179
aI508
aI850
aI739
aI600
aI500
aI748
aI440
aI618
aI531
aI725
aI818
aI997
aI435
aI762
aI975
aI885
aI484
aI433
aI831
aI845
aI971
aI697
aI561
aI722
aI810
asS'pedge'
p11
F0.1
sS'r_ad'
p12
(lp13
F468.0
aF522.0
aF456.0
aF486.0
aF487.0
aF440.0
aF479.0
aF463.0
aF523.0
aF450.0
aF477.0
aF491.0
aF467.0
aF497.0
aF465.0
aF482.0
aF475.0
aF487.0
aF479.0
aF507.0
aF487.0
aF487.0
aF497.0
aF485.0
aF513.0
aF493.0
aF486.0
aF503.0
aF460.0
aF461.0
aF487.0
aF477.0
aF488.0
aF499.0
aF472.0
aF494.0
aF497.0
aF471.0
aF505.0
aF479.0
aF476.0
aF474.0
aF474.0
aF490.0
aF484.0
aF474.0
aF481.0
aF496.0
aF491.0
aF470.0
aF486.0
aF493.0
aF481.0
aF480.0
aF515.0
aF496.0
aF488.0
aF493.0
aF521.0
aF481.0
aF487.0
aF457.0
aF508.0
aF457.0
aF468.0
aF507.0
aF499.0
aF482.0
aF489.0
aF477.0
aF476.0
aF493.0
aF496.0
aF489.0
aF524.0
aF511.0
aF513.0
aF512.0
aF472.0
aF490.0
aF492.0
aF517.0
aF475.0
aF513.0
aF461.0
aF491.0
aF456.0
aF489.0
aF493.0
aF483.0
aF469.0
aF500.0
aF495.0
aF487.0
aF478.0
aF459.0
aF487.0
aF494.0
aF494.0
aF535.0
asS'v_nonad_rg'
p14
(lp15
I149
aI90
aI735
aI219
aI437
aI258
aI478
aI287
aI111
aI75
aI199
aI19
aI904
aI636
aI331
aI288
aI396
aI103
aI315
aI545
aI505
aI299
aI544
aI632
aI688
aI803
aI177
aI203
aI439
aI189
aI776
aI220
aI421
aI254
aI391
aI615
aI771
aI453
aI589
aI869
aI372
aI448
aI426
aI592
aI423
aI746
aI120
aI880
aI77
aI444
aI365
aI671
aI357
aI286
aI640
aI527
aI495
aI553
aI479
aI515
aI661
aI896
aI393
aI942
aI243
aI790
aI398
aI822
aI989
aI351
aI323
aI165
aI946
aI97
aI939
aI963
aI808
aI394
aI257
aI738
aI40
aI248
aI901
aI543
aI712
aI802
aI131
aI588
aI162
aI875
aI409
aI556
aI947
aI654
aI820
aI491
aI227
aI506
aI733
aI703
aI285
aI806
aI239
aI314
aI833
aI715
aI837
aI510
aI927
aI620
aI707
aI831
aI784
aI983
aI255
aI704
aI371
aI834
aI887
aI483
aI445
aI728
aI312
aI716
aI558
aI156
aI176
aI209
aI916
aI309
aI144
aI600
aI367
aI542
aI462
aI745
aI741
aI625
aI699
aI876
aI629
aI938
aI912
aI516
aI731
aI547
aI349
aI852
aI761
aI644
aI762
aI449
aI477
aI930
aI637
aI638
aI690
aI112
aI596
aI828
aI885
aI788
aI678
aI603
aI668
aI986
aI846
aI517
aI432
aI546
aI535
aI435
aI680
aI420
aI384
aI289
aI882
aI321
aI687
aI630
aI769
aI675
aI943
aI665
aI350
aI756
aI386
aI643
aI221
aI518
aI524
aI313
aI646
aI894
aI612
aI590
aI909
aI296
aI568
aI635
aI871
aI577
aI525
aI881
aI985
aI605
aI918
aI786
aI809
aI975
aI889
aI874
aI647
aI856
aI973
aI433
aI879
aI570
aI924
aI576
aI759
aI548
aI956
aI730
aI540
aI498
aI508
aI987
aI572
aI514
aI551
aI641
aI710
aI683
aI509
aI390
aI955
aI667
aI619
aI606
aI753
aI502
aI997
aI949
aI511
aI416
aI645
aI789
aI602
aI950
aI816
aI696
aI490
aI571
aI937
aI995
aI575
aI473
aI519
aI727
aI945
aI611
aI859
aI810
asS'nsim_ad'
p16
I1000
sS'git'
p17
S'49779d6'
p18
sS'kratio'
p19
I3
sS'r_nonad_g'
p20
(lp21
F403.0
aF430.0
aF396.0
aF421.0
aF423.0
aF366.0
aF424.0
aF394.0
aF443.0
aF356.0
aF415.0
aF427.0
aF400.0
aF401.0
aF393.0
aF399.0
aF394.0
aF428.0
aF363.0
aF424.0
aF366.0
aF386.0
aF407.0
aF412.0
aF424.0
aF422.0
aF410.0
aF420.0
aF389.0
aF393.0
aF403.0
aF401.0
aF423.0
aF425.0
aF396.0
aF393.0
aF375.0
aF407.0
aF420.0
aF409.0
aF405.0
aF372.0
aF399.0
aF400.0
aF394.0
aF408.0
aF408.0
aF423.0
aF411.0
aF401.0
aF390.0
aF410.0
aF408.0
aF371.0
aF436.0
aF426.0
aF381.0
aF435.0
aF443.0
aF407.0
aF413.0
aF412.0
aF422.0
aF410.0
aF397.0
aF428.0
aF422.0
aF394.0
aF431.0
aF403.0
aF426.0
aF422.0
aF413.0
aF375.0
aF421.0
aF399.0
aF401.0
aF441.0
aF347.0
aF384.0
aF391.0
aF443.0
aF401.0
aF415.0
aF381.0
aF402.0
aF399.0
aF381.0
aF411.0
aF389.0
aF379.0
aF404.0
aF423.0
aF413.0
aF403.0
aF377.0
aF419.0
aF403.0
aF393.0
aF434.0
asS'nsim_nonad'
p22
I10000
sS't_h'
p23
I3
sS't_s'
p24
I6
sS'r_nonad_rg'
p25
(lp26
F410.0
aF442.0
aF387.0
aF389.0
aF412.0
aF373.0
aF409.0
aF382.0
aF427.0
aF387.0
aF399.0
aF418.0
aF407.0
aF375.0
aF376.0
aF389.0
aF389.0
aF416.0
aF395.0
aF393.0
aF404.0
aF402.0
aF397.0
aF367.0
aF411.0
aF425.0
aF397.0
aF401.0
aF390.0
aF383.0
aF392.0
aF358.0
aF412.0
aF422.0
aF392.0
aF424.0
aF409.0
aF423.0
aF411.0
aF396.0
aF381.0
aF382.0
aF386.0
aF407.0
aF381.0
aF367.0
aF401.0
aF441.0
aF394.0
aF372.0
aF400.0
aF396.0
aF413.0
aF385.0
aF429.0
aF409.0
aF403.0
aF408.0
aF430.0
aF413.0
aF408.0
aF385.0
aF403.0
aF385.0
aF390.0
aF421.0
aF426.0
aF409.0
aF404.0
aF382.0
aF387.0
aF433.0
aF419.0
aF415.0
aF411.0
aF417.0
aF416.0
aF410.0
aF394.0
aF392.0
aF413.0
aF438.0
aF395.0
aF400.0
aF378.0
aF400.0
aF403.0
aF404.0
aF405.0
aF398.0
aF387.0
aF387.0
aF413.0
aF414.0
aF378.0
aF369.0
aF393.0
aF404.0
aF422.0
aF430.0
asS'workers'
p27
I7
sS'gamma'
p28
F1.0
sS'vcount'
p29
I1000
s.