(dp0
S'niter'
p1
I100
sS'v_ad'
p2
(lp3
I17
aI10
aI14
aI19
aI14
aI12
aI13
aI12
aI11
aI11
aI11
aI13
aI15
aI12
aI13
aI4
aI11
aI14
aI11
aI16
aI18
aI10
aI17
aI8
aI12
aI12
aI7
aI7
aI9
aI14
aI7
aI9
aI10
aI13
aI7
aI11
aI8
aI13
aI8
aI16
aI10
aI18
aI13
aI12
aI12
aI10
aI6
aI11
aI12
aI13
aI7
aI8
aI6
aI11
aI14
aI11
aI13
aI13
aI8
aI9
aI15
aI8
aI15
aI11
aI7
aI14
aI12
aI9
aI6
aI10
aI12
aI11
aI12
aI12
aI10
aI10
aI7
aI15
aI7
aI10
aI8
aI15
aI7
aI11
aI15
aI9
aI6
aI7
aI9
aI7
aI10
aI10
aI10
aI14
aI9
aI7
aI7
aI8
aI15
aI11
asS'trans'
p4
F0.8047941557912676
sS'ecount'
p5
I13033
sS'name'
p6
S'SNAP_GR_1000'
p7
sS't_m'
p8
I31
sS'v_nonad_g'
p9
(lp10
I75
aI172
aI368
aI78
aI910
aI698
aI746
aI641
asS'pedge'
p11
F0.6
sS'r_ad'
p12
(lp13
F948.0
aF948.0
aF947.0
aF949.0
aF948.0
aF951.0
aF954.0
aF951.0
aF958.0
aF954.0
aF957.0
aF950.0
aF944.0
aF952.0
aF945.0
aF961.0
aF948.0
aF948.0
aF947.0
aF944.0
aF937.0
aF951.0
aF932.0
aF956.0
aF952.0
aF952.0
aF945.0
aF955.0
aF951.0
aF955.0
aF956.0
aF957.0
aF948.0
aF949.0
aF957.0
aF952.0
aF954.0
aF956.0
aF959.0
aF934.0
aF959.0
aF948.0
aF949.0
aF950.0
aF951.0
aF960.0
aF952.0
aF951.0
aF957.0
aF952.0
aF961.0
aF952.0
aF966.0
aF954.0
aF948.0
aF950.0
aF943.0
aF948.0
aF956.0
aF961.0
aF942.0
aF953.0
aF948.0
aF949.0
aF956.0
aF948.0
aF951.0
aF953.0
aF959.0
aF944.0
aF946.0
aF957.0
aF947.0
aF952.0
aF947.0
aF949.0
aF953.0
aF956.0
aF951.0
aF953.0
aF953.0
aF948.0
aF957.0
aF945.0
aF941.0
aF946.0
aF959.0
aF962.0
aF956.0
aF948.0
aF946.0
aF953.0
aF947.0
aF952.0
aF948.0
aF957.0
aF951.0
aF962.0
aF947.0
aF954.0
asS'v_nonad_rg'
p14
(lp15
I1
aI225
aI857
aI95
aI666
aI407
aI910
aI852
aI641
asS'nsim_ad'
p16
I1000
sS'git'
p17
S'49779d6'
p18
sS'kratio'
p19
I3
sS'r_nonad_g'
p20
(lp21
F935.0
aF941.0
aF932.0
aF927.0
aF936.0
aF943.0
aF942.0
aF938.0
aF948.0
aF943.0
aF942.0
aF928.0
aF941.0
aF932.0
aF938.0
aF953.0
aF934.0
aF940.0
aF942.0
aF931.0
aF930.0
aF945.0
aF925.0
aF943.0
aF944.0
aF943.0
aF939.0
aF945.0
aF942.0
aF926.0
aF948.0
aF950.0
aF945.0
aF941.0
aF951.0
aF942.0
aF942.0
aF937.0
aF951.0
aF920.0
aF954.0
aF933.0
aF940.0
aF940.0
aF937.0
aF956.0
aF943.0
aF940.0
aF947.0
aF940.0
aF950.0
aF949.0
aF956.0
aF943.0
aF934.0
aF934.0
aF934.0
aF939.0
aF952.0
aF957.0
aF920.0
aF945.0
aF934.0
aF939.0
aF949.0
aF936.0
aF938.0
aF941.0
aF950.0
aF938.0
aF938.0
aF948.0
aF931.0
aF938.0
aF938.0
aF941.0
aF951.0
aF940.0
aF939.0
aF941.0
aF946.0
aF934.0
aF948.0
aF936.0
aF922.0
aF937.0
aF953.0
aF954.0
aF954.0
aF940.0
aF937.0
aF945.0
aF940.0
aF945.0
aF937.0
aF948.0
aF943.0
aF951.0
aF934.0
aF943.0
asS'nsim_nonad'
p22
I10000
sS't_h'
p23
I1
sS't_s'
p24
I17
sS'r_nonad_rg'
p25
(lp26
F935.0
aF942.0
aF930.0
aF928.0
aF936.0
aF944.0
aF941.0
aF936.0
aF948.0
aF942.0
aF940.0
aF928.0
aF940.0
aF932.0
aF939.0
aF952.0
aF933.0
aF939.0
aF940.0
aF931.0
aF928.0
aF944.0
aF924.0
aF943.0
aF943.0
aF942.0
aF939.0
aF945.0
aF942.0
aF925.0
aF946.0
aF949.0
aF944.0
aF941.0
aF951.0
aF942.0
aF941.0
aF936.0
aF952.0
aF920.0
aF954.0
aF935.0
aF941.0
aF939.0
aF937.0
aF954.0
aF942.0
aF939.0
aF946.0
aF941.0
aF950.0
aF949.0
aF956.0
aF941.0
aF934.0
aF934.0
aF937.0
aF938.0
aF950.0
aF956.0
aF918.0
aF944.0
aF934.0
aF938.0
aF948.0
aF935.0
aF937.0
aF939.0
aF948.0
aF938.0
aF940.0
aF948.0
aF934.0
aF938.0
aF937.0
aF940.0
aF949.0
aF938.0
aF938.0
aF941.0
aF945.0
aF933.0
aF947.0
aF936.0
aF922.0
aF935.0
aF951.0
aF953.0
aF953.0
aF939.0
aF936.0
aF945.0
aF940.0
aF945.0
aF938.0
aF948.0
aF941.0
aF950.0
aF933.0
aF941.0
asS'workers'
p27
I7
sS'gamma'
p28
F1.0
sS'vcount'
p29
I1000
s.