(dp0
S'niter'
p1
I100
sS'v_ad'
p2
(lp3
I10
aI10
aI10
aI10
aI10
aI10
aI10
aI10
aI10
aI10
aI10
aI10
aI10
aI10
aI10
aI10
aI10
aI10
aI10
aI10
aI10
aI10
aI10
aI10
aI10
aI10
aI10
aI10
aI10
aI10
aI10
aI10
aI10
aI10
aI10
aI10
aI10
aI10
aI10
aI10
aI10
aI10
aI10
aI10
aI10
aI10
aI10
aI10
aI10
aI10
aI10
aI10
aI10
aI10
aI10
aI10
aI10
aI10
aI10
aI10
aI10
aI10
aI10
aI10
aI10
aI10
aI10
aI10
aI10
aI10
aI10
aI10
aI10
aI10
aI10
aI10
aI10
aI10
aI10
aI10
aI10
aI10
aI10
aI10
aI10
aI10
aI10
aI10
aI10
aI10
aI10
aI10
aI10
aI10
aI10
aI10
aI10
aI10
aI10
aI10
asS'trans'
p4
F0.6892001655525245
sS'ecount'
p5
I45990
sS'name'
p6
S'SNAP_FB_1000'
p7
sS't_m'
p8
I46
sS'v_nonad_g'
p9
(lp10
I145
aI7
aI431
aI396
aI644
aI342
aI682
aI293
aI579
aI978
asS'pedge'
p11
F0.2
sS'r_ad'
p12
(lp13
F836.0
aF813.0
aF834.0
aF806.0
aF815.0
aF824.0
aF793.0
aF829.0
aF838.0
aF812.0
aF824.0
aF817.0
aF830.0
aF789.0
aF797.0
aF833.0
aF822.0
aF845.0
aF856.0
aF810.0
aF805.0
aF842.0
aF821.0
aF819.0
aF847.0
aF803.0
aF803.0
aF796.0
aF802.0
aF858.0
aF827.0
aF810.0
aF843.0
aF825.0
aF803.0
aF824.0
aF792.0
aF813.0
aF804.0
aF822.0
aF829.0
aF841.0
aF821.0
aF789.0
aF804.0
aF821.0
aF783.0
aF793.0
aF814.0
aF811.0
aF827.0
aF818.0
aF785.0
aF804.0
aF830.0
aF820.0
aF843.0
aF814.0
aF805.0
aF775.0
aF829.0
aF809.0
aF799.0
aF789.0
aF817.0
aF817.0
aF811.0
aF811.0
aF828.0
aF820.0
aF827.0
aF825.0
aF836.0
aF801.0
aF850.0
aF795.0
aF845.0
aF812.0
aF818.0
aF804.0
aF809.0
aF787.0
aF802.0
aF803.0
aF835.0
aF816.0
aF807.0
aF792.0
aF826.0
aF791.0
aF832.0
aF804.0
aF803.0
aF828.0
aF832.0
aF817.0
aF794.0
aF813.0
aF792.0
aF809.0
asS'v_nonad_rg'
p14
(lp15
I152
aI479
aI284
aI431
aI878
aI306
aI7
aI655
aI644
aI208
asS'nsim_ad'
p16
I1000
sS'git'
p17
S'bf3390d'
p18
sS'kratio'
p19
I100
sS'r_nonad_g'
p20
(lp21
F826.0
aF844.0
aF855.0
aF799.0
aF852.0
aF831.0
aF810.0
aF850.0
aF863.0
aF842.0
aF831.0
aF818.0
aF831.0
aF810.0
aF820.0
aF851.0
aF844.0
aF838.0
aF875.0
aF826.0
aF815.0
aF849.0
aF840.0
aF813.0
aF814.0
aF804.0
aF831.0
aF832.0
aF808.0
aF866.0
aF816.0
aF834.0
aF845.0
aF849.0
aF847.0
aF840.0
aF790.0
aF785.0
aF818.0
aF819.0
aF845.0
aF853.0
aF851.0
aF817.0
aF827.0
aF829.0
aF826.0
aF831.0
aF832.0
aF830.0
aF841.0
aF844.0
aF815.0
aF821.0
aF845.0
aF831.0
aF815.0
aF816.0
aF830.0
aF845.0
aF843.0
aF840.0
aF845.0
aF779.0
aF840.0
aF808.0
aF817.0
aF818.0
aF838.0
aF812.0
aF831.0
aF836.0
aF831.0
aF819.0
aF858.0
aF857.0
aF844.0
aF811.0
aF857.0
aF805.0
aF802.0
aF829.0
aF834.0
aF828.0
aF834.0
aF833.0
aF824.0
aF824.0
aF855.0
aF831.0
aF836.0
aF832.0
aF821.0
aF841.0
aF854.0
aF827.0
aF821.0
aF835.0
aF828.0
aF842.0
asS'nsim_nonad'
p22
I10000
sS't_h'
p23
I0
sS't_s'
p24
I8
sS'r_nonad_rg'
p25
(lp26
F824.0
aF834.0
aF819.0
aF812.0
aF828.0
aF821.0
aF816.0
aF843.0
aF848.0
aF795.0
aF801.0
aF795.0
aF812.0
aF790.0
aF811.0
aF815.0
aF821.0
aF821.0
aF829.0
aF810.0
aF804.0
aF824.0
aF818.0
aF806.0
aF807.0
aF787.0
aF807.0
aF817.0
aF796.0
aF829.0
aF810.0
aF823.0
aF844.0
aF830.0
aF826.0
aF813.0
aF783.0
aF811.0
aF808.0
aF804.0
aF837.0
aF831.0
aF830.0
aF809.0
aF811.0
aF815.0
aF793.0
aF815.0
aF803.0
aF822.0
aF830.0
aF841.0
aF786.0
aF794.0
aF831.0
aF802.0
aF828.0
aF811.0
aF814.0
aF784.0
aF809.0
aF798.0
aF805.0
aF793.0
aF801.0
aF813.0
aF796.0
aF797.0
aF824.0
aF781.0
aF841.0
aF820.0
aF838.0
aF779.0
aF811.0
aF806.0
aF850.0
aF803.0
aF829.0
aF806.0
aF800.0
aF810.0
aF789.0
aF804.0
aF798.0
aF805.0
aF806.0
aF796.0
aF826.0
aF820.0
aF820.0
aF825.0
aF798.0
aF822.0
aF827.0
aF808.0
aF811.0
aF817.0
aF818.0
aF794.0
asS'workers'
p27
I7
sS'gamma'
p28
F1.0
sS'vcount'
p29
I1000
s.