(dp0
S'niter'
p1
I100
sS'v_ad'
p2
(lp3
I10
aI10
aI10
aI10
aI10
aI10
aI10
aI10
aI10
aI10
aI10
aI10
aI10
aI10
aI10
aI10
aI10
aI10
aI10
aI10
aI10
aI10
aI10
aI10
aI10
aI10
aI10
aI10
aI10
aI10
aI10
aI10
aI10
aI10
aI10
aI10
aI10
aI10
aI10
aI10
aI10
aI10
aI10
aI10
aI10
aI10
aI10
aI10
aI10
aI10
aI10
aI10
aI10
aI10
aI10
aI10
aI10
aI10
aI10
aI10
aI10
aI10
aI10
aI10
aI10
aI10
aI10
aI10
aI10
aI10
aI10
aI10
aI10
aI10
aI10
aI10
aI10
aI10
aI10
aI10
aI10
aI10
aI10
aI10
aI10
aI10
aI10
aI10
aI10
aI10
aI10
aI10
aI10
aI10
aI10
aI10
aI10
aI10
aI10
aI10
asS'trans'
p4
F0.6892001655525245
sS'ecount'
p5
I45990
sS'name'
p6
S'SNAP_FB_1000'
p7
sS't_m'
p8
I3
sS'v_nonad_g'
p9
(lp10
I145
aI431
aI293
aI916
aI396
aI342
aI978
aI768
aI689
aI935
asS'pedge'
p11
F0.5
sS'r_ad'
p12
(lp13
F932.0
aF925.0
aF919.0
aF928.0
aF930.0
aF906.0
aF931.0
aF919.0
aF916.0
aF922.0
aF921.0
aF927.0
aF917.0
aF914.0
aF912.0
aF917.0
aF931.0
aF919.0
aF920.0
aF922.0
aF929.0
aF927.0
aF920.0
aF922.0
aF923.0
aF933.0
aF911.0
aF921.0
aF925.0
aF915.0
aF925.0
aF928.0
aF927.0
aF931.0
aF921.0
aF924.0
aF913.0
aF921.0
aF916.0
aF919.0
aF930.0
aF906.0
aF914.0
aF913.0
aF923.0
aF918.0
aF921.0
aF913.0
aF920.0
aF922.0
aF919.0
aF929.0
aF917.0
aF927.0
aF933.0
aF916.0
aF909.0
aF939.0
aF903.0
aF920.0
aF923.0
aF920.0
aF928.0
aF931.0
aF930.0
aF922.0
aF923.0
aF918.0
aF922.0
aF938.0
aF912.0
aF926.0
aF926.0
aF914.0
aF931.0
aF921.0
aF912.0
aF920.0
aF925.0
aF919.0
aF920.0
aF918.0
aF909.0
aF915.0
aF921.0
aF913.0
aF924.0
aF925.0
aF909.0
aF919.0
aF927.0
aF935.0
aF920.0
aF931.0
aF930.0
aF920.0
aF922.0
aF918.0
aF926.0
aF927.0
asS'v_nonad_rg'
p14
(lp15
I152
aI902
aI214
aI916
aI726
aI978
aI342
aI293
aI768
aI787
asS'nsim_ad'
p16
I1000
sS'git'
p17
S'bf3390d'
p18
sS'kratio'
p19
I100
sS'r_nonad_g'
p20
(lp21
F941.0
aF957.0
aF958.0
aF942.0
aF943.0
aF945.0
aF953.0
aF946.0
aF951.0
aF939.0
aF945.0
aF950.0
aF925.0
aF940.0
aF945.0
aF941.0
aF961.0
aF935.0
aF938.0
aF947.0
aF937.0
aF942.0
aF933.0
aF950.0
aF955.0
aF949.0
aF952.0
aF957.0
aF941.0
aF944.0
aF939.0
aF951.0
aF948.0
aF953.0
aF942.0
aF949.0
aF950.0
aF947.0
aF947.0
aF960.0
aF946.0
aF964.0
aF949.0
aF953.0
aF949.0
aF955.0
aF956.0
aF938.0
aF947.0
aF944.0
aF936.0
aF954.0
aF940.0
aF943.0
aF962.0
aF940.0
aF950.0
aF947.0
aF941.0
aF940.0
aF953.0
aF939.0
aF948.0
aF953.0
aF952.0
aF958.0
aF953.0
aF944.0
aF957.0
aF947.0
aF926.0
aF941.0
aF946.0
aF939.0
aF957.0
aF936.0
aF943.0
aF948.0
aF946.0
aF931.0
aF953.0
aF943.0
aF932.0
aF943.0
aF946.0
aF945.0
aF957.0
aF956.0
aF941.0
aF947.0
aF947.0
aF958.0
aF938.0
aF947.0
aF952.0
aF949.0
aF931.0
aF956.0
aF953.0
aF950.0
asS'nsim_nonad'
p22
I10000
sS't_h'
p23
I1
sS't_s'
p24
I16
sS'r_nonad_rg'
p25
(lp26
F931.0
aF935.0
aF938.0
aF926.0
aF921.0
aF927.0
aF940.0
aF921.0
aF935.0
aF925.0
aF923.0
aF928.0
aF913.0
aF928.0
aF928.0
aF914.0
aF932.0
aF925.0
aF922.0
aF927.0
aF932.0
aF932.0
aF929.0
aF934.0
aF926.0
aF935.0
aF929.0
aF940.0
aF922.0
aF925.0
aF922.0
aF916.0
aF916.0
aF939.0
aF919.0
aF932.0
aF921.0
aF926.0
aF935.0
aF939.0
aF925.0
aF933.0
aF926.0
aF931.0
aF924.0
aF938.0
aF936.0
aF922.0
aF921.0
aF927.0
aF912.0
aF913.0
aF922.0
aF937.0
aF933.0
aF927.0
aF924.0
aF933.0
aF918.0
aF923.0
aF936.0
aF915.0
aF933.0
aF935.0
aF930.0
aF926.0
aF933.0
aF921.0
aF943.0
aF926.0
aF903.0
aF924.0
aF927.0
aF937.0
aF938.0
aF924.0
aF934.0
aF930.0
aF921.0
aF928.0
aF931.0
aF925.0
aF906.0
aF929.0
aF928.0
aF925.0
aF944.0
aF939.0
aF915.0
aF933.0
aF936.0
aF943.0
aF915.0
aF924.0
aF929.0
aF920.0
aF918.0
aF933.0
aF934.0
aF938.0
asS'workers'
p27
I7
sS'gamma'
p28
F1.0
sS'vcount'
p29
I1000
s.