(dp0
S'niter'
p1
I100
sS'v_ad'
p2
(lp3
I10
aI10
aI10
aI10
aI10
aI10
aI10
aI10
aI10
aI10
aI10
aI10
aI10
aI10
aI10
aI10
aI10
aI10
aI10
aI10
aI10
aI10
aI10
aI10
aI10
aI10
aI10
aI10
aI10
aI10
aI10
aI10
aI10
aI10
aI10
aI10
aI10
aI10
aI10
aI10
aI10
aI10
aI10
aI10
aI10
aI10
aI10
aI10
aI10
aI10
aI10
aI10
aI10
aI10
aI10
aI10
aI10
aI10
aI10
aI10
aI10
aI10
aI10
aI10
aI10
aI10
aI10
aI10
aI10
aI10
aI10
aI10
aI10
aI10
aI10
aI10
aI10
aI10
aI10
aI10
aI10
aI10
aI10
aI10
aI10
aI10
aI10
aI10
aI10
aI10
aI10
aI10
aI10
aI10
aI10
aI10
aI10
aI10
aI10
aI10
asS'trans'
p4
F0.6892001655525245
sS'ecount'
p5
I45990
sS'name'
p6
S'SNAP_FB_1000'
p7
sS't_m'
p8
I56
sS'v_nonad_g'
p9
(lp10
I145
aI7
aI396
aI431
aI342
aI644
aI293
aI208
aI284
aI682
asS'pedge'
p11
F0.1
sS'r_ad'
p12
(lp13
F643.0
aF666.0
aF630.0
aF596.0
aF644.0
aF644.0
aF580.0
aF664.0
aF647.0
aF608.0
aF603.0
aF619.0
aF611.0
aF625.0
aF616.0
aF615.0
aF617.0
aF680.0
aF658.0
aF615.0
aF682.0
aF618.0
aF659.0
aF659.0
aF646.0
aF602.0
aF599.0
aF652.0
aF650.0
aF614.0
aF612.0
aF636.0
aF632.0
aF624.0
aF646.0
aF686.0
aF651.0
aF652.0
aF621.0
aF655.0
aF591.0
aF618.0
aF631.0
aF603.0
aF672.0
aF632.0
aF603.0
aF617.0
aF613.0
aF594.0
aF685.0
aF642.0
aF683.0
aF653.0
aF673.0
aF659.0
aF647.0
aF616.0
aF627.0
aF635.0
aF627.0
aF683.0
aF698.0
aF621.0
aF643.0
aF654.0
aF675.0
aF617.0
aF667.0
aF608.0
aF620.0
aF615.0
aF591.0
aF588.0
aF670.0
aF640.0
aF677.0
aF637.0
aF622.0
aF572.0
aF604.0
aF658.0
aF624.0
aF669.0
aF663.0
aF634.0
aF604.0
aF649.0
aF628.0
aF645.0
aF664.0
aF651.0
aF655.0
aF634.0
aF574.0
aF649.0
aF629.0
aF674.0
aF580.0
aF632.0
asS'v_nonad_rg'
p14
(lp15
I208
aI66
aI622
aI431
aI682
aI7
aI342
aI284
aI76
aI902
asS'nsim_ad'
p16
I1000
sS'git'
p17
S'bf3390d'
p18
sS'kratio'
p19
I100
sS'r_nonad_g'
p20
(lp21
F658.0
aF666.0
aF650.0
aF607.0
aF669.0
aF657.0
aF651.0
aF629.0
aF658.0
aF591.0
aF623.0
aF629.0
aF663.0
aF656.0
aF647.0
aF680.0
aF660.0
aF659.0
aF650.0
aF651.0
aF710.0
aF655.0
aF667.0
aF687.0
aF659.0
aF623.0
aF652.0
aF685.0
aF684.0
aF619.0
aF637.0
aF679.0
aF664.0
aF619.0
aF630.0
aF720.0
aF664.0
aF663.0
aF644.0
aF686.0
aF651.0
aF651.0
aF646.0
aF622.0
aF610.0
aF632.0
aF662.0
aF659.0
aF654.0
aF654.0
aF648.0
aF657.0
aF681.0
aF662.0
aF666.0
aF679.0
aF656.0
aF622.0
aF677.0
aF604.0
aF657.0
aF712.0
aF723.0
aF669.0
aF632.0
aF646.0
aF738.0
aF652.0
aF680.0
aF682.0
aF628.0
aF663.0
aF672.0
aF637.0
aF692.0
aF676.0
aF689.0
aF632.0
aF631.0
aF642.0
aF623.0
aF593.0
aF633.0
aF630.0
aF645.0
aF634.0
aF638.0
aF630.0
aF659.0
aF641.0
aF695.0
aF712.0
aF673.0
aF650.0
aF677.0
aF640.0
aF683.0
aF665.0
aF648.0
aF642.0
asS'nsim_nonad'
p22
I10000
sS't_h'
p23
I0
sS't_s'
p24
I34
sS'r_nonad_rg'
p25
(lp26
F662.0
aF659.0
aF636.0
aF590.0
aF650.0
aF662.0
aF630.0
aF661.0
aF632.0
aF574.0
aF568.0
aF624.0
aF640.0
aF657.0
aF625.0
aF673.0
aF664.0
aF652.0
aF611.0
aF643.0
aF679.0
aF643.0
aF658.0
aF633.0
aF651.0
aF610.0
aF604.0
aF664.0
aF667.0
aF631.0
aF634.0
aF647.0
aF621.0
aF613.0
aF625.0
aF670.0
aF647.0
aF655.0
aF610.0
aF658.0
aF620.0
aF642.0
aF624.0
aF620.0
aF642.0
aF614.0
aF664.0
aF634.0
aF657.0
aF655.0
aF622.0
aF589.0
aF631.0
aF682.0
aF674.0
aF628.0
aF646.0
aF616.0
aF674.0
aF597.0
aF637.0
aF684.0
aF706.0
aF631.0
aF615.0
aF666.0
aF695.0
aF641.0
aF672.0
aF670.0
aF634.0
aF590.0
aF659.0
aF653.0
aF676.0
aF636.0
aF693.0
aF609.0
aF632.0
aF650.0
aF601.0
aF606.0
aF596.0
aF662.0
aF665.0
aF634.0
aF639.0
aF631.0
aF638.0
aF635.0
aF711.0
aF715.0
aF663.0
aF620.0
aF652.0
aF645.0
aF628.0
aF670.0
aF626.0
aF625.0
asS'workers'
p27
I7
sS'gamma'
p28
F1.0
sS'vcount'
p29
I1000
s.