(dp0
S'niter'
p1
I100
sS'v_ad'
p2
(lp3
I10
aI10
aI10
aI10
aI10
aI10
aI10
aI10
aI10
aI10
aI10
aI10
aI10
aI10
aI10
aI10
aI10
aI10
aI10
aI10
aI10
aI10
aI10
aI10
aI10
aI10
aI10
aI10
aI10
aI10
aI10
aI10
aI10
aI10
aI10
aI10
aI10
aI10
aI10
aI10
aI10
aI10
aI10
aI10
aI10
aI10
aI10
aI10
aI10
aI10
aI10
aI10
aI10
aI10
aI10
aI10
aI10
aI10
aI10
aI10
aI10
aI10
aI10
aI10
aI10
aI10
aI10
aI10
aI10
aI10
aI10
aI10
aI10
aI10
aI10
aI10
aI10
aI10
aI10
aI10
aI10
aI10
aI10
aI10
aI10
aI10
aI10
aI10
aI10
aI10
aI10
aI10
aI10
aI10
aI10
aI10
aI10
aI10
aI10
aI10
asS'trans'
p4
F0.6892001655525245
sS'ecount'
p5
I45990
sS'name'
p6
S'SNAP_FB_1000'
p7
sS't_m'
p8
I35
sS'v_nonad_g'
p9
(lp10
I145
aI7
aI342
aI127
aI293
aI162
aI284
aI66
aI431
aI84
asS'pedge'
p11
F0.05
sS'r_ad'
p12
(lp13
F351.0
aF427.0
aF408.0
aF356.0
aF403.0
aF379.0
aF397.0
aF381.0
aF435.0
aF432.0
aF356.0
aF332.0
aF414.0
aF399.0
aF389.0
aF385.0
aF379.0
aF409.0
aF348.0
aF454.0
aF353.0
aF354.0
aF385.0
aF355.0
aF442.0
aF413.0
aF390.0
aF381.0
aF398.0
aF355.0
aF361.0
aF363.0
aF378.0
aF395.0
aF355.0
aF389.0
aF378.0
aF410.0
aF376.0
aF361.0
aF385.0
aF355.0
aF362.0
aF429.0
aF347.0
aF318.0
aF314.0
aF331.0
aF338.0
aF372.0
aF409.0
aF465.0
aF371.0
aF374.0
aF334.0
aF368.0
aF387.0
aF403.0
aF399.0
aF376.0
aF428.0
aF410.0
aF400.0
aF366.0
aF358.0
aF361.0
aF432.0
aF404.0
aF334.0
aF358.0
aF392.0
aF426.0
aF397.0
aF366.0
aF358.0
aF351.0
aF445.0
aF428.0
aF405.0
aF388.0
aF344.0
aF405.0
aF406.0
aF357.0
aF377.0
aF364.0
aF377.0
aF338.0
aF349.0
aF383.0
aF385.0
aF403.0
aF378.0
aF367.0
aF468.0
aF378.0
aF349.0
aF398.0
aF443.0
aF357.0
asS'v_nonad_rg'
p14
(lp15
I127
aI214
aI5
aI7
aI152
aI284
aI342
aI100
aI208
aI392
asS'nsim_ad'
p16
I1000
sS'git'
p17
S'bf3390d'
p18
sS'kratio'
p19
I100
sS'r_nonad_g'
p20
(lp21
F411.0
aF440.0
aF390.0
aF362.0
aF417.0
aF397.0
aF426.0
aF386.0
aF404.0
aF435.0
aF337.0
aF332.0
aF398.0
aF371.0
aF409.0
aF389.0
aF434.0
aF389.0
aF353.0
aF434.0
aF417.0
aF300.0
aF364.0
aF355.0
aF415.0
aF376.0
aF380.0
aF376.0
aF363.0
aF421.0
aF374.0
aF391.0
aF389.0
aF406.0
aF393.0
aF403.0
aF440.0
aF354.0
aF374.0
aF400.0
aF412.0
aF344.0
aF412.0
aF400.0
aF388.0
aF367.0
aF300.0
aF343.0
aF322.0
aF371.0
aF407.0
aF389.0
aF400.0
aF392.0
aF419.0
aF366.0
aF419.0
aF387.0
aF364.0
aF422.0
aF434.0
aF454.0
aF338.0
aF372.0
aF364.0
aF421.0
aF382.0
aF406.0
aF370.0
aF414.0
aF370.0
aF424.0
aF391.0
aF401.0
aF408.0
aF381.0
aF422.0
aF428.0
aF402.0
aF409.0
aF387.0
aF397.0
aF416.0
aF394.0
aF402.0
aF394.0
aF425.0
aF371.0
aF359.0
aF406.0
aF378.0
aF434.0
aF397.0
aF384.0
aF455.0
aF408.0
aF374.0
aF399.0
aF437.0
aF361.0
asS'nsim_nonad'
p22
I10000
sS't_h'
p23
I1
sS't_s'
p24
I54
sS'r_nonad_rg'
p25
(lp26
F379.0
aF370.0
aF388.0
aF339.0
aF372.0
aF438.0
aF383.0
aF380.0
aF403.0
aF396.0
aF364.0
aF329.0
aF393.0
aF402.0
aF396.0
aF373.0
aF446.0
aF386.0
aF344.0
aF446.0
aF398.0
aF331.0
aF385.0
aF324.0
aF390.0
aF353.0
aF354.0
aF374.0
aF368.0
aF378.0
aF332.0
aF330.0
aF425.0
aF427.0
aF422.0
aF377.0
aF440.0
aF360.0
aF348.0
aF386.0
aF352.0
aF367.0
aF389.0
aF380.0
aF361.0
aF311.0
aF289.0
aF362.0
aF363.0
aF392.0
aF398.0
aF423.0
aF399.0
aF386.0
aF359.0
aF395.0
aF386.0
aF381.0
aF407.0
aF407.0
aF434.0
aF455.0
aF351.0
aF391.0
aF379.0
aF415.0
aF402.0
aF408.0
aF372.0
aF415.0
aF417.0
aF359.0
aF372.0
aF377.0
aF402.0
aF365.0
aF413.0
aF454.0
aF403.0
aF371.0
aF349.0
aF370.0
aF392.0
aF393.0
aF387.0
aF387.0
aF355.0
aF396.0
aF356.0
aF393.0
aF395.0
aF378.0
aF384.0
aF378.0
aF423.0
aF448.0
aF371.0
aF409.0
aF424.0
aF363.0
asS'workers'
p27
I7
sS'gamma'
p28
F1.0
sS'vcount'
p29
I1000
s.