(dp0
S'niter'
p1
I100
sS'v_ad'
p2
(lp3
I100
aI100
aI100
aI100
aI100
aI100
aI100
aI100
aI100
aI100
aI100
aI100
aI100
aI100
aI100
aI100
aI100
aI100
aI100
aI100
aI100
aI100
aI100
aI100
aI100
aI100
aI100
aI100
aI100
aI100
aI100
aI100
aI100
aI100
aI100
aI100
aI100
aI100
aI100
aI100
aI100
aI100
aI100
aI100
aI100
aI100
aI100
aI100
aI100
aI100
aI100
aI100
aI100
aI100
aI100
aI100
aI100
aI100
aI100
aI100
aI100
aI100
aI100
aI100
aI100
aI100
aI100
aI100
aI100
aI100
aI100
aI100
aI100
aI100
aI100
aI100
aI100
aI100
aI100
aI100
aI100
aI100
aI100
aI100
aI100
aI100
aI100
aI100
aI100
aI100
aI100
aI100
aI100
aI100
aI100
aI100
aI100
aI100
aI100
aI100
asS'trans'
p4
F0.8047941557912676
sS'ecount'
p5
I13033
sS'name'
p6
S'SNAP_GR_1000'
p7
sS't_m'
p8
I40
sS'v_nonad_g'
p9
(lp10
I3
aI64
aI109
aI127
aI188
aI75
aI410
aI177
aI253
aI239
aI40
aI384
aI299
aI153
aI130
aI413
aI168
aI441
aI144
aI380
aI174
aI340
aI171
aI143
aI306
aI41
aI289
aI243
aI603
aI313
aI248
aI444
aI162
aI221
aI801
aI305
aI418
aI309
aI617
aI497
aI187
aI479
aI857
aI397
aI242
aI352
aI657
aI518
aI292
aI372
aI146
aI389
aI563
aI461
aI403
aI428
aI550
aI844
aI381
aI339
aI628
aI689
aI419
aI128
aI541
aI337
aI131
aI394
aI369
aI649
aI821
aI640
aI939
aI256
aI154
aI302
aI576
aI182
aI511
aI635
aI642
aI619
aI685
aI499
aI491
aI579
aI544
aI274
aI695
aI665
aI929
aI505
aI710
aI668
aI727
aI565
aI959
aI890
aI933
aI318
asS'pedge'
p11
F0.125
sS'r_ad'
p12
(lp13
F520.0
aF526.0
aF530.0
aF508.0
aF526.0
aF515.0
aF498.0
aF505.0
aF545.0
aF517.0
aF498.0
aF523.0
aF540.0
aF507.0
aF542.0
aF478.0
aF500.0
aF513.0
aF510.0
aF462.0
aF490.0
aF526.0
aF487.0
aF506.0
aF471.0
aF519.0
aF500.0
aF523.0
aF508.0
aF534.0
aF507.0
aF512.0
aF492.0
aF499.0
aF511.0
aF487.0
aF540.0
aF513.0
aF504.0
aF549.0
aF509.0
aF507.0
aF498.0
aF501.0
aF539.0
aF506.0
aF546.0
aF512.0
aF518.0
aF508.0
aF536.0
aF498.0
aF518.0
aF527.0
aF512.0
aF471.0
aF493.0
aF512.0
aF524.0
aF524.0
aF538.0
aF500.0
aF508.0
aF523.0
aF505.0
aF565.0
aF507.0
aF491.0
aF516.0
aF509.0
aF519.0
aF481.0
aF481.0
aF509.0
aF537.0
aF527.0
aF461.0
aF520.0
aF536.0
aF490.0
aF513.0
aF510.0
aF476.0
aF499.0
aF507.0
aF515.0
aF497.0
aF510.0
aF505.0
aF474.0
aF537.0
aF489.0
aF546.0
aF491.0
aF479.0
aF528.0
aF499.0
aF522.0
aF503.0
aF466.0
asS'v_nonad_rg'
p14
(lp15
I9
aI87
aI282
aI185
aI485
aI98
aI418
aI432
aI191
aI299
aI468
aI684
aI319
aI441
aI315
aI659
aI221
aI234
aI242
aI314
aI617
aI130
aI292
aI951
aI150
aI495
aI168
aI528
aI587
aI320
aI375
aI878
aI529
aI858
aI389
aI531
aI368
aI857
aI165
aI255
aI505
aI790
aI572
aI243
aI448
aI819
aI128
aI733
aI934
aI290
aI483
aI594
aI450
aI310
aI618
aI657
aI248
aI339
aI144
aI888
aI41
aI954
aI444
aI479
aI417
aI864
aI649
aI309
aI491
aI755
aI627
aI500
aI675
aI182
aI683
aI784
aI541
aI357
aI672
aI959
aI274
aI872
aI777
aI929
aI371
aI632
aI525
aI640
aI286
aI511
aI171
aI378
aI942
aI146
aI845
aI901
aI729
aI828
aI686
aI782
asS'nsim_ad'
p16
I1000
sS'git'
p17
S'25db2e2'
p18
sS'kratio'
p19
I10
sS'r_nonad_g'
p20
(lp21
F490.0
aF495.0
aF449.0
aF465.0
aF469.0
aF446.0
aF469.0
aF442.0
aF504.0
aF478.0
aF433.0
aF473.0
aF497.0
aF388.0
aF494.0
aF461.0
aF462.0
aF453.0
aF463.0
aF443.0
aF474.0
aF484.0
aF457.0
aF472.0
aF456.0
aF466.0
aF463.0
aF481.0
aF485.0
aF457.0
aF446.0
aF454.0
aF453.0
aF467.0
aF468.0
aF468.0
aF497.0
aF462.0
aF459.0
aF472.0
aF452.0
aF468.0
aF434.0
aF460.0
aF472.0
aF454.0
aF466.0
aF437.0
aF471.0
aF447.0
aF483.0
aF472.0
aF452.0
aF441.0
aF465.0
aF457.0
aF426.0
aF456.0
aF470.0
aF481.0
aF481.0
aF439.0
aF457.0
aF464.0
aF438.0
aF521.0
aF464.0
aF468.0
aF465.0
aF454.0
aF467.0
aF464.0
aF460.0
aF456.0
aF488.0
aF466.0
aF460.0
aF449.0
aF483.0
aF454.0
aF457.0
aF458.0
aF444.0
aF466.0
aF439.0
aF471.0
aF473.0
aF481.0
aF476.0
aF415.0
aF481.0
aF432.0
aF471.0
aF447.0
aF452.0
aF498.0
aF429.0
aF442.0
aF427.0
aF439.0
asS'nsim_nonad'
p22
I10000
sS't_h'
p23
I1
sS't_s'
p24
I18
sS'r_nonad_rg'
p25
(lp26
F470.0
aF475.0
aF453.0
aF462.0
aF481.0
aF467.0
aF435.0
aF470.0
aF488.0
aF475.0
aF455.0
aF440.0
aF480.0
aF443.0
aF501.0
aF436.0
aF452.0
aF456.0
aF467.0
aF403.0
aF449.0
aF479.0
aF457.0
aF437.0
aF432.0
aF434.0
aF460.0
aF477.0
aF454.0
aF436.0
aF445.0
aF468.0
aF446.0
aF454.0
aF450.0
aF431.0
aF475.0
aF466.0
aF435.0
aF484.0
aF447.0
aF457.0
aF451.0
aF445.0
aF500.0
aF466.0
aF451.0
aF416.0
aF483.0
aF455.0
aF480.0
aF447.0
aF439.0
aF485.0
aF433.0
aF433.0
aF421.0
aF447.0
aF483.0
aF471.0
aF485.0
aF461.0
aF457.0
aF472.0
aF430.0
aF496.0
aF459.0
aF458.0
aF488.0
aF457.0
aF452.0
aF460.0
aF447.0
aF446.0
aF485.0
aF446.0
aF397.0
aF442.0
aF502.0
aF461.0
aF413.0
aF441.0
aF472.0
aF456.0
aF410.0
aF482.0
aF469.0
aF467.0
aF475.0
aF385.0
aF472.0
aF445.0
aF467.0
aF453.0
aF445.0
aF482.0
aF459.0
aF447.0
aF415.0
aF448.0
asS'workers'
p27
I4
sS'gamma'
p28
F1.0
sS'vcount'
p29
I1000
s.