(dp0
S'niter'
p1
I100
sS'v_ad'
p2
(lp3
I200
aI200
aI200
aI196
aI200
aI200
aI200
aI200
aI200
aI200
aI200
aI200
aI200
aI200
aI200
aI200
aI200
aI200
aI200
aI200
aI200
aI200
aI200
aI200
aI200
aI200
aI200
aI200
aI200
aI200
aI200
aI200
aI200
aI200
aI200
aI200
aI200
aI200
aI200
aI200
aI200
aI200
aI200
aI200
aI200
aI200
aI200
aI200
aI200
aI200
aI200
aI200
aI200
aI200
aI200
aI200
aI200
aI200
aI200
aI200
aI200
aI200
aI200
aI200
aI200
aI200
aI200
aI200
aI200
aI200
aI200
aI200
aI200
aI200
aI200
aI200
aI200
aI200
aI200
aI200
aI200
aI200
aI200
aI200
aI200
aI200
aI200
aI200
aI200
aI200
aI200
aI200
aI200
aI200
aI200
aI200
aI200
aI200
aI200
aI200
asS'trans'
p4
F0.8047941557912676
sS'ecount'
p5
I13033
sS'name'
p6
S'SNAP_GR_1000'
p7
sS't_m'
p8
I47
sS'v_nonad_g'
p9
(lp10
I2
aI70
aI92
aI127
aI219
aI75
aI427
aI177
aI391
aI239
aI299
aI389
aI168
aI752
aI130
aI165
aI380
aI376
aI144
aI171
aI242
aI289
aI187
aI174
aI620
aI444
aI603
aI128
aI288
aI286
aI309
aI801
aI243
aI479
aI221
aI146
aI518
aI657
aI297
aI162
aI178
aI469
aI898
aI428
aI292
aI419
aI413
aI983
aI283
aI844
aI939
aI318
aI628
aI658
aI541
aI711
aI369
aI647
aI635
aI689
aI256
aI550
aI394
aI545
aI203
aI619
aI640
aI959
aI253
aI782
aI695
aI615
aI877
aI817
aI274
aI617
aI565
aI929
aI410
aI436
aI880
aI412
aI846
aI558
aI345
aI933
aI337
aI727
aI511
aI463
aI816
aI499
aI890
aI715
aI717
aI765
aI748
aI751
aI757
aI919
aI581
aI589
aI917
aI449
aI938
aI354
aI702
aI771
aI554
aI968
aI360
aI661
aI978
aI698
aI512
aI745
aI787
aI825
aI870
aI631
aI789
aI618
aI945
aI759
aI673
aI987
aI966
aI553
aI638
aI737
aI849
aI624
aI508
aI785
aI516
aI820
aI833
aI976
aI781
aI304
aI622
aI839
aI686
aI762
aI888
aI864
aI998
aI696
aI650
aI889
aI616
aI850
aI838
aI699
aI847
aI430
aI613
asS'pedge'
p11
F0.15
sS'r_ad'
p12
(lp13
F626.0
aF637.0
aF584.0
aF645.0
aF598.0
aF599.0
aF606.0
aF611.0
aF637.0
aF616.0
aF633.0
aF567.0
aF610.0
aF600.0
aF611.0
aF572.0
aF593.0
aF636.0
aF628.0
aF620.0
aF587.0
aF602.0
aF617.0
aF598.0
aF607.0
aF601.0
aF624.0
aF630.0
aF594.0
aF589.0
aF604.0
aF603.0
aF580.0
aF592.0
aF602.0
aF582.0
aF614.0
aF586.0
aF630.0
aF615.0
aF596.0
aF580.0
aF613.0
aF654.0
aF622.0
aF618.0
aF582.0
aF615.0
aF613.0
aF596.0
aF617.0
aF587.0
aF609.0
aF603.0
aF642.0
aF607.0
aF609.0
aF604.0
aF623.0
aF611.0
aF612.0
aF605.0
aF585.0
aF558.0
aF590.0
aF639.0
aF612.0
aF632.0
aF629.0
aF618.0
aF601.0
aF591.0
aF616.0
aF579.0
aF640.0
aF620.0
aF614.0
aF608.0
aF606.0
aF636.0
aF585.0
aF625.0
aF593.0
aF599.0
aF594.0
aF633.0
aF606.0
aF564.0
aF628.0
aF602.0
aF615.0
aF616.0
aF589.0
aF628.0
aF601.0
aF601.0
aF573.0
aF630.0
aF592.0
aF590.0
asS'v_nonad_rg'
p14
(lp15
I39
aI107
aI437
aI475
aI476
aI189
aI482
aI266
aI57
aI760
aI224
aI977
aI160
aI154
aI338
aI808
aI728
aI168
aI996
aI587
aI349
aI674
aI950
aI428
aI387
aI755
aI469
aI710
aI384
aI711
aI483
aI835
aI675
aI815
aI972
aI283
aI917
aI817
aI890
aI681
aI725
aI877
aI262
aI128
aI733
aI659
aI430
aI526
aI485
aI174
aI339
aI146
aI970
aI634
aI565
aI653
aI375
aI579
aI988
aI974
aI351
aI444
aI378
aI289
aI292
aI479
aI544
aI422
aI729
aI605
aI816
aI947
aI706
aI419
aI789
aI414
aI738
aI920
aI827
aI449
aI618
aI390
aI523
aI498
aI490
aI471
aI846
aI926
aI797
aI688
aI619
aI293
aI915
aI533
aI958
aI959
aI473
aI576
aI694
aI845
aI451
aI905
aI454
aI589
aI628
aI512
aI985
aI562
aI806
aI594
aI745
aI302
aI698
aI998
aI942
aI896
aI888
aI689
aI651
aI635
aI870
aI644
aI860
aI781
aI637
aI913
aI602
aI243
aI340
aI716
aI372
aI724
aI807
aI699
aI564
aI638
aI904
aI415
aI851
aI900
aI712
aI553
aI448
aI304
aI606
aI668
aI847
aI547
aI810
aI639
aI622
aI499
aI501
aI889
aI508
aI839
aI695
aI856
aI948
aI788
aI582
aI673
aI820
aI611
aI727
aI768
aI645
aI933
aI825
aI759
aI696
aI345
aI939
aI671
aI849
aI893
aI930
aI650
aI894
aI412
aI595
aI876
aI713
aI997
aI774
aI945
aI886
aI949
asS'nsim_ad'
p16
I1000
sS'git'
p17
S'f19acc5'
p18
sS'kratio'
p19
I5
sS'r_nonad_g'
p20
(lp21
F544.0
aF537.0
aF527.0
aF544.0
aF532.0
aF498.0
aF524.0
aF538.0
aF529.0
aF512.0
aF550.0
aF516.0
aF542.0
aF517.0
aF564.0
aF532.0
aF525.0
aF570.0
aF530.0
aF539.0
aF534.0
aF530.0
aF550.0
aF502.0
aF536.0
aF535.0
aF530.0
aF528.0
aF508.0
aF526.0
aF549.0
aF510.0
aF520.0
aF526.0
aF541.0
aF509.0
aF524.0
aF504.0
aF554.0
aF560.0
aF512.0
aF534.0
aF545.0
aF561.0
aF541.0
aF518.0
aF529.0
aF535.0
aF550.0
aF519.0
aF533.0
aF495.0
aF525.0
aF516.0
aF555.0
aF505.0
aF541.0
aF547.0
aF543.0
aF538.0
aF534.0
aF538.0
aF489.0
aF483.0
aF508.0
aF548.0
aF575.0
aF555.0
aF550.0
aF553.0
aF514.0
aF528.0
aF539.0
aF508.0
aF559.0
aF516.0
aF518.0
aF550.0
aF534.0
aF548.0
aF519.0
aF564.0
aF551.0
aF531.0
aF527.0
aF551.0
aF552.0
aF521.0
aF532.0
aF519.0
aF542.0
aF551.0
aF504.0
aF533.0
aF544.0
aF512.0
aF537.0
aF524.0
aF544.0
aF479.0
asS'nsim_nonad'
p22
I10000
sS't_h'
p23
I1
sS't_s'
p24
I19
sS'r_nonad_rg'
p25
(lp26
F544.0
aF548.0
aF504.0
aF550.0
aF529.0
aF521.0
aF535.0
aF524.0
aF521.0
aF516.0
aF551.0
aF519.0
aF532.0
aF542.0
aF539.0
aF496.0
aF516.0
aF559.0
aF558.0
aF498.0
aF508.0
aF496.0
aF567.0
aF500.0
aF522.0
aF527.0
aF545.0
aF530.0
aF512.0
aF528.0
aF541.0
aF541.0
aF503.0
aF545.0
aF533.0
aF533.0
aF549.0
aF494.0
aF537.0
aF540.0
aF515.0
aF528.0
aF505.0
aF566.0
aF536.0
aF533.0
aF515.0
aF528.0
aF531.0
aF539.0
aF525.0
aF518.0
aF532.0
aF520.0
aF555.0
aF527.0
aF520.0
aF542.0
aF544.0
aF494.0
aF542.0
aF535.0
aF517.0
aF509.0
aF518.0
aF552.0
aF549.0
aF565.0
aF553.0
aF563.0
aF499.0
aF518.0
aF546.0
aF514.0
aF564.0
aF536.0
aF540.0
aF534.0
aF530.0
aF557.0
aF531.0
aF553.0
aF520.0
aF521.0
aF524.0
aF556.0
aF552.0
aF520.0
aF548.0
aF515.0
aF538.0
aF555.0
aF496.0
aF544.0
aF519.0
aF542.0
aF518.0
aF532.0
aF530.0
aF478.0
asS'workers'
p27
I7
sS'gamma'
p28
F1.0
sS'vcount'
p29
I1000
s.