(dp0
S'niter'
p1
I100
sS'v_ad'
p2
(lp3
I197
aI136
aI172
aI153
aI175
aI128
aI154
aI151
aI153
aI140
aI155
aI156
aI178
aI160
aI164
aI179
aI169
aI171
aI178
aI165
aI173
aI157
aI157
aI178
aI143
aI165
aI162
aI155
aI173
aI164
aI187
aI161
aI158
aI170
aI163
aI163
aI136
aI179
aI173
aI166
aI145
aI164
aI179
aI185
aI182
aI150
aI147
aI169
aI141
aI152
aI180
aI158
aI153
aI170
aI164
aI172
aI150
aI163
aI179
aI161
aI158
aI148
aI166
aI169
aI165
aI164
aI154
aI169
aI165
aI171
aI155
aI165
aI155
aI160
aI172
aI150
aI165
aI155
aI152
aI182
aI171
aI184
aI154
aI167
aI155
aI186
aI160
aI173
aI150
aI181
aI177
aI154
aI158
aI185
aI168
aI164
aI181
aI173
aI147
aI157
asS'trans'
p4
F0.8047941557912676
sS'ecount'
p5
I13033
sS'name'
p6
S'SNAP_GR_1000'
p7
sS't_m'
p8
I15
sS'v_nonad_g'
p9
(lp10
I37
aI111
aI217
aI145
aI405
aI124
aI305
aI418
aI363
aI468
aI389
aI182
aI760
aI380
aI154
aI289
aI168
aI288
aI309
aI146
aI274
aI728
aI518
aI657
aI171
aI844
aI801
aI394
aI553
aI378
aI417
aI780
aI641
aI563
aI515
aI256
aI187
aI599
aI939
aI983
aI911
aI927
aI547
aI681
aI782
aI642
aI648
aI947
aI846
aI707
aI630
aI564
aI929
aI369
aI790
aI712
aI695
aI869
aI552
aI731
aI822
aI751
aI715
aI923
aI816
aI717
aI995
aI558
aI938
aI484
aI304
aI872
aI602
aI698
aI388
aI853
aI877
aI817
aI829
aI879
aI806
aI600
aI926
aI797
aI831
aI785
aI757
aI945
aI890
aI631
aI876
aI512
aI768
aI810
aI860
aI984
aI574
aI646
aI660
aI985
aI778
aI591
aI842
aI683
aI286
aI839
aI494
aI345
aI508
asS'pedge'
p11
F0.2
sS'r_ad'
p12
(lp13
F687.0
aF745.0
aF698.0
aF726.0
aF695.0
aF761.0
aF732.0
aF708.0
aF731.0
aF734.0
aF716.0
aF715.0
aF696.0
aF719.0
aF716.0
aF692.0
aF692.0
aF714.0
aF685.0
aF706.0
aF701.0
aF720.0
aF712.0
aF701.0
aF741.0
aF713.0
aF715.0
aF704.0
aF698.0
aF717.0
aF688.0
aF712.0
aF719.0
aF702.0
aF715.0
aF714.0
aF742.0
aF698.0
aF690.0
aF711.0
aF730.0
aF723.0
aF694.0
aF676.0
aF699.0
aF722.0
aF733.0
aF713.0
aF732.0
aF718.0
aF702.0
aF720.0
aF722.0
aF703.0
aF715.0
aF706.0
aF723.0
aF707.0
aF695.0
aF711.0
aF714.0
aF719.0
aF704.0
aF719.0
aF720.0
aF723.0
aF713.0
aF711.0
aF691.0
aF700.0
aF711.0
aF699.0
aF733.0
aF708.0
aF710.0
aF727.0
aF708.0
aF718.0
aF716.0
aF701.0
aF700.0
aF697.0
aF732.0
aF707.0
aF719.0
aF685.0
aF713.0
aF708.0
aF728.0
aF694.0
aF701.0
aF721.0
aF710.0
aF696.0
aF714.0
aF721.0
aF691.0
aF705.0
aF719.0
aF721.0
asS'v_nonad_rg'
p14
(lp15
I35
aI194
aI270
aI62
aI614
aI316
aI867
aI480
aI119
aI299
aI411
aI350
aI701
aI840
aI128
aI154
aI558
aI247
aI737
aI501
aI605
aI690
aI706
aI939
aI927
aI842
aI760
aI921
aI790
aI292
aI505
aI603
aI784
aI845
aI661
aI547
aI448
aI782
aI860
aI710
aI637
aI209
aI588
aI924
aI712
aI899
aI888
aI645
aI498
aI781
aI914
aI381
aI156
aI444
aI308
aI983
aI892
aI416
aI365
aI780
aI483
aI729
aI553
aI171
aI738
aI643
aI948
aI644
aI976
aI619
aI889
aI477
aI938
aI233
aI515
aI893
aI507
aI582
aI751
aI757
aI256
aI419
aI864
aI538
aI695
aI984
aI928
aI673
aI929
aI945
aI756
aI635
aI560
aI537
aI725
aI717
aI629
aI683
aI877
aI630
aI373
aI937
aI839
aI789
aI852
aI707
aI901
aI820
aI857
aI713
aI905
aI958
aI980
aI947
aI851
aI973
aI969
aI631
aI369
aI651
aI354
aI853
aI602
aI345
aI846
aI876
aI831
aI949
aI449
asS'nsim_ad'
p16
I1000
sS'git'
p17
S'f19acc5'
p18
sS'kratio'
p19
I5
sS'r_nonad_g'
p20
(lp21
F598.0
aF661.0
aF630.0
aF667.0
aF646.0
aF697.0
aF636.0
aF619.0
aF682.0
aF646.0
aF635.0
aF665.0
aF625.0
aF636.0
aF657.0
aF635.0
aF623.0
aF641.0
aF607.0
aF640.0
aF636.0
aF666.0
aF644.0
aF618.0
aF664.0
aF639.0
aF650.0
aF647.0
aF615.0
aF635.0
aF615.0
aF642.0
aF636.0
aF644.0
aF618.0
aF668.0
aF656.0
aF633.0
aF607.0
aF613.0
aF651.0
aF631.0
aF618.0
aF614.0
aF640.0
aF657.0
aF657.0
aF630.0
aF681.0
aF658.0
aF626.0
aF659.0
aF655.0
aF630.0
aF653.0
aF648.0
aF638.0
aF659.0
aF581.0
aF640.0
aF644.0
aF652.0
aF644.0
aF665.0
aF643.0
aF626.0
aF644.0
aF634.0
aF643.0
aF613.0
aF662.0
aF649.0
aF666.0
aF652.0
aF629.0
aF648.0
aF608.0
aF666.0
aF628.0
aF623.0
aF640.0
aF640.0
aF654.0
aF631.0
aF653.0
aF622.0
aF643.0
aF630.0
aF669.0
aF620.0
aF636.0
aF653.0
aF628.0
aF624.0
aF631.0
aF654.0
aF636.0
aF623.0
aF655.0
aF646.0
asS'nsim_nonad'
p22
I10000
sS't_h'
p23
I1
sS't_s'
p24
I32
sS'r_nonad_rg'
p25
(lp26
F605.0
aF666.0
aF634.0
aF648.0
aF624.0
aF636.0
aF618.0
aF635.0
aF675.0
aF636.0
aF644.0
aF637.0
aF611.0
aF610.0
aF642.0
aF619.0
aF618.0
aF625.0
aF606.0
aF634.0
aF601.0
aF635.0
aF633.0
aF622.0
aF645.0
aF635.0
aF624.0
aF601.0
aF614.0
aF638.0
aF603.0
aF628.0
aF648.0
aF623.0
aF626.0
aF653.0
aF651.0
aF616.0
aF589.0
aF618.0
aF657.0
aF641.0
aF615.0
aF611.0
aF636.0
aF631.0
aF618.0
aF636.0
aF663.0
aF644.0
aF630.0
aF645.0
aF642.0
aF592.0
aF643.0
aF611.0
aF629.0
aF646.0
aF595.0
aF646.0
aF633.0
aF626.0
aF610.0
aF650.0
aF623.0
aF614.0
aF630.0
aF609.0
aF642.0
aF618.0
aF612.0
aF627.0
aF663.0
aF643.0
aF639.0
aF652.0
aF628.0
aF660.0
aF641.0
aF598.0
aF609.0
aF626.0
aF649.0
aF643.0
aF641.0
aF615.0
aF667.0
aF636.0
aF654.0
aF615.0
aF607.0
aF643.0
aF601.0
aF620.0
aF627.0
aF605.0
aF619.0
aF616.0
aF632.0
aF627.0
asS'workers'
p27
I7
sS'gamma'
p28
F1.0
sS'vcount'
p29
I1000
s.