(dp0
S'niter'
p1
I100
sS'v_ad'
p2
(lp3
I100
aI100
aI97
aI99
aI92
aI100
aI87
aI89
aI100
aI98
aI95
aI100
aI100
aI99
aI100
aI100
aI91
aI100
aI97
aI83
aI100
aI98
aI90
aI100
aI100
aI100
aI100
aI100
aI90
aI90
aI100
aI100
aI99
aI100
aI100
aI98
aI100
aI95
aI97
aI100
aI100
aI96
aI97
aI100
aI98
aI91
aI100
aI90
aI100
aI100
aI100
aI100
aI93
aI92
aI100
aI100
aI100
aI100
aI100
aI100
aI99
aI100
aI100
aI85
aI100
aI100
aI79
aI90
aI100
aI100
aI100
aI100
aI100
aI96
aI95
aI87
aI100
aI100
aI100
aI99
aI100
aI100
aI99
aI100
aI93
aI94
aI100
aI100
aI100
aI100
aI100
aI100
aI100
aI100
aI100
aI100
aI94
aI100
aI99
aI99
asS'trans'
p4
F0.6892001655525245
sS'ecount'
p5
I45990
sS'name'
p6
S'SNAP_FB_1000'
p7
sS't_m'
p8
I21
sS'v_nonad_g'
p9
(lp10
I145
aI7
aI431
aI396
aI644
aI342
aI682
aI293
aI579
aI978
aI382
aI208
aI768
aI760
aI935
aI916
aI841
aI507
aI689
aI483
aI787
aI633
aI886
aI902
aI267
aI655
aI799
aI214
aI870
aI392
aI925
aI378
aI800
aI776
aI875
aI979
aI453
aI866
aI926
aI749
aI306
aI712
aI753
aI893
aI284
aI923
aI479
aI967
aI152
aI734
aI425
aI840
aI992
aI480
asS'pedge'
p11
F0.2
sS'r_ad'
p12
(lp13
F876.0
aF860.0
aF876.0
aF879.0
aF880.0
aF860.0
aF887.0
aF886.0
aF868.0
aF878.0
aF876.0
aF869.0
aF876.0
aF873.0
aF872.0
aF859.0
aF883.0
aF867.0
aF879.0
aF889.0
aF868.0
aF876.0
aF882.0
aF883.0
aF871.0
aF862.0
aF872.0
aF861.0
aF883.0
aF888.0
aF874.0
aF868.0
aF872.0
aF856.0
aF871.0
aF878.0
aF875.0
aF881.0
aF884.0
aF873.0
aF872.0
aF886.0
aF873.0
aF876.0
aF886.0
aF884.0
aF876.0
aF883.0
aF873.0
aF881.0
aF877.0
aF865.0
aF876.0
aF877.0
aF871.0
aF872.0
aF865.0
aF863.0
aF866.0
aF865.0
aF883.0
aF873.0
aF879.0
aF885.0
aF871.0
aF868.0
aF894.0
aF890.0
aF861.0
aF877.0
aF873.0
aF866.0
aF873.0
aF881.0
aF875.0
aF889.0
aF861.0
aF873.0
aF872.0
aF870.0
aF875.0
aF878.0
aF881.0
aF877.0
aF886.0
aF881.0
aF870.0
aF865.0
aF853.0
aF877.0
aF873.0
aF870.0
aF869.0
aF860.0
aF873.0
aF856.0
aF883.0
aF873.0
aF882.0
aF877.0
asS'v_nonad_rg'
p14
(lp15
I342
aI579
aI917
aI902
aI307
aI814
aI127
aI670
aI378
aI788
aI306
aI744
aI356
aI8
aI841
aI507
aI760
aI644
aI100
aI284
aI152
aI903
aI542
aI753
aI293
aI497
aI658
aI941
aI960
aI822
aI926
aI751
aI872
aI145
aI208
aI479
aI905
aI923
aI650
aI392
aI875
aI992
aI804
aI799
aI818
aI925
aI305
aI382
aI987
aI831
aI622
aI916
aI927
aI396
aI659
aI899
aI711
aI682
aI783
aI734
aI425
aI869
aI840
aI893
aI633
aI866
aI967
aI431
aI365
aI214
aI434
aI989
aI7
aI776
aI787
aI978
aI768
aI870
aI749
aI935
aI800
aI483
aI267
aI886
aI689
aI453
aI655
asS'nsim_ad'
p16
I1000
sS'git'
p17
S'6993752'
p18
sS'kratio'
p19
I10
sS'r_nonad_g'
p20
(lp21
F889.0
aF886.0
aF872.0
aF886.0
aF884.0
aF880.0
aF900.0
aF890.0
aF868.0
aF884.0
aF887.0
aF879.0
aF882.0
aF885.0
aF888.0
aF879.0
aF883.0
aF882.0
aF887.0
aF895.0
aF861.0
aF880.0
aF894.0
aF880.0
aF870.0
aF874.0
aF889.0
aF870.0
aF886.0
aF889.0
aF883.0
aF879.0
aF890.0
aF873.0
aF888.0
aF882.0
aF877.0
aF895.0
aF896.0
aF879.0
aF882.0
aF899.0
aF880.0
aF898.0
aF895.0
aF892.0
aF884.0
aF881.0
aF874.0
aF891.0
aF887.0
aF876.0
aF882.0
aF884.0
aF879.0
aF874.0
aF886.0
aF886.0
aF874.0
aF879.0
aF886.0
aF867.0
aF888.0
aF889.0
aF887.0
aF881.0
aF898.0
aF885.0
aF880.0
aF878.0
aF891.0
aF886.0
aF881.0
aF879.0
aF880.0
aF890.0
aF893.0
aF876.0
aF891.0
aF877.0
aF879.0
aF886.0
aF883.0
aF884.0
aF882.0
aF892.0
aF888.0
aF859.0
aF868.0
aF887.0
aF877.0
aF872.0
aF882.0
aF853.0
aF873.0
aF877.0
aF888.0
aF879.0
aF893.0
aF869.0
asS'nsim_nonad'
p22
I10000
sS't_h'
p23
I1
sS't_s'
p24
I19
sS'r_nonad_rg'
p25
(lp26
F862.0
aF867.0
aF862.0
aF872.0
aF870.0
aF873.0
aF877.0
aF867.0
aF863.0
aF872.0
aF863.0
aF863.0
aF862.0
aF871.0
aF869.0
aF863.0
aF863.0
aF872.0
aF873.0
aF873.0
aF851.0
aF874.0
aF877.0
aF861.0
aF864.0
aF861.0
aF871.0
aF855.0
aF877.0
aF868.0
aF862.0
aF853.0
aF863.0
aF861.0
aF871.0
aF859.0
aF869.0
aF880.0
aF873.0
aF860.0
aF860.0
aF880.0
aF865.0
aF874.0
aF874.0
aF870.0
aF862.0
aF869.0
aF863.0
aF871.0
aF870.0
aF860.0
aF872.0
aF866.0
aF870.0
aF858.0
aF864.0
aF871.0
aF863.0
aF857.0
aF875.0
aF854.0
aF874.0
aF873.0
aF858.0
aF864.0
aF877.0
aF869.0
aF862.0
aF869.0
aF873.0
aF866.0
aF866.0
aF866.0
aF865.0
aF874.0
aF875.0
aF862.0
aF869.0
aF865.0
aF855.0
aF871.0
aF868.0
aF870.0
aF869.0
aF875.0
aF875.0
aF852.0
aF865.0
aF867.0
aF866.0
aF857.0
aF869.0
aF839.0
aF856.0
aF865.0
aF867.0
aF864.0
aF874.0
aF852.0
asS'workers'
p27
I4
sS'gamma'
p28
F1.0
sS'vcount'
p29
I1000
s.