(dp0
S'niter'
p1
I100
sS'v_ad'
p2
(lp3
I41
aI36
aI41
aI43
aI38
aI33
aI36
aI43
aI45
aI41
aI38
aI42
aI37
aI40
aI38
aI50
aI41
aI48
aI41
aI36
aI40
aI36
aI30
aI39
aI39
aI37
aI37
aI34
aI47
aI40
aI40
aI43
aI47
aI42
aI40
aI38
aI41
aI32
aI52
aI36
aI39
aI39
aI46
aI37
aI46
aI42
aI41
aI33
aI30
aI35
aI51
aI40
aI50
aI35
aI49
aI45
aI45
aI36
aI35
aI35
aI38
aI38
aI45
aI44
aI44
aI41
aI48
aI39
aI39
aI35
aI37
aI41
aI34
aI45
aI36
aI31
aI41
aI39
aI35
aI34
aI44
aI35
aI34
aI50
aI42
aI33
aI37
aI37
aI38
aI41
aI36
aI33
aI41
aI36
aI44
aI35
aI43
aI48
aI42
aI34
asS'trans'
p4
F0.6892001655525245
sS'ecount'
p5
I45990
sS'name'
p6
S'SNAP_FB_1000'
p7
sS't_m'
p8
I45
sS'v_nonad_g'
p9
(lp10
I145
aI431
aI293
aI916
aI396
aI342
aI978
aI768
aI689
aI935
aI870
aI682
aI776
aI760
aI992
aI841
aI799
aI926
asS'pedge'
p11
F0.6
sS'r_ad'
p12
(lp13
F942.0
aF950.0
aF947.0
aF944.0
aF946.0
aF954.0
aF950.0
aF941.0
aF947.0
aF945.0
aF949.0
aF943.0
aF948.0
aF945.0
aF949.0
aF937.0
aF946.0
aF939.0
aF944.0
aF951.0
aF946.0
aF946.0
aF956.0
aF946.0
aF948.0
aF948.0
aF952.0
aF953.0
aF943.0
aF945.0
aF946.0
aF942.0
aF937.0
aF943.0
aF944.0
aF948.0
aF944.0
aF955.0
aF936.0
aF950.0
aF950.0
aF947.0
aF943.0
aF946.0
aF941.0
aF940.0
aF944.0
aF949.0
aF954.0
aF953.0
aF935.0
aF949.0
aF941.0
aF950.0
aF939.0
aF942.0
aF945.0
aF950.0
aF946.0
aF950.0
aF946.0
aF949.0
aF946.0
aF939.0
aF943.0
aF947.0
aF939.0
aF947.0
aF941.0
aF953.0
aF951.0
aF942.0
aF954.0
aF941.0
aF951.0
aF955.0
aF948.0
aF947.0
aF948.0
aF949.0
aF940.0
aF954.0
aF955.0
aF933.0
aF947.0
aF955.0
aF953.0
aF953.0
aF948.0
aF949.0
aF951.0
aF957.0
aF944.0
aF949.0
aF945.0
aF952.0
aF946.0
aF938.0
aF943.0
aF954.0
asS'v_nonad_rg'
p14
(lp15
I48
aI755
aI713
aI479
aI979
aI127
aI994
aI689
aI682
aI380
aI497
aI822
aI925
aI714
aI841
aI378
aI655
aI760
aI744
aI306
aI978
aI776
aI267
aI734
aI431
aI992
aI726
aI987
aI622
aI887
aI916
aI753
aI284
aI800
aI483
aI145
aI886
aI507
aI342
aI579
aI396
aI768
aI799
aI926
aI870
aI293
aI935
asS'nsim_ad'
p16
I1000
sS'git'
p17
S'fcb943d'
p18
sS'kratio'
p19
I10
sS'r_nonad_g'
p20
(lp21
F965.0
aF960.0
aF964.0
aF957.0
aF966.0
aF966.0
aF956.0
aF955.0
aF949.0
aF964.0
aF966.0
aF965.0
aF961.0
aF963.0
aF970.0
aF957.0
aF963.0
aF966.0
aF966.0
aF962.0
aF966.0
aF963.0
aF968.0
aF970.0
aF967.0
aF959.0
aF964.0
aF967.0
aF960.0
aF969.0
aF964.0
aF970.0
aF960.0
aF970.0
aF970.0
aF959.0
aF962.0
aF970.0
aF964.0
aF965.0
aF969.0
aF952.0
aF964.0
aF961.0
aF958.0
aF962.0
aF960.0
aF960.0
aF969.0
aF967.0
aF965.0
aF968.0
aF967.0
aF967.0
aF967.0
aF967.0
aF963.0
aF965.0
aF968.0
aF970.0
aF967.0
aF961.0
aF967.0
aF959.0
aF961.0
aF965.0
aF964.0
aF962.0
aF964.0
aF966.0
aF969.0
aF959.0
aF972.0
aF969.0
aF964.0
aF965.0
aF966.0
aF968.0
aF961.0
aF962.0
aF962.0
aF971.0
aF971.0
aF960.0
aF957.0
aF966.0
aF967.0
aF965.0
aF967.0
aF966.0
aF969.0
aF964.0
aF967.0
aF968.0
aF958.0
aF971.0
aF964.0
aF952.0
aF965.0
aF964.0
asS'nsim_nonad'
p22
I10000
sS't_h'
p23
I1
sS't_s'
p24
I47
sS'r_nonad_rg'
p25
(lp26
F943.0
aF940.0
aF944.0
aF935.0
aF945.0
aF940.0
aF938.0
aF937.0
aF944.0
aF943.0
aF941.0
aF941.0
aF938.0
aF941.0
aF945.0
aF939.0
aF939.0
aF943.0
aF943.0
aF943.0
aF944.0
aF940.0
aF944.0
aF946.0
aF946.0
aF941.0
aF942.0
aF945.0
aF940.0
aF943.0
aF939.0
aF945.0
aF941.0
aF947.0
aF945.0
aF936.0
aF940.0
aF946.0
aF941.0
aF940.0
aF948.0
aF937.0
aF939.0
aF938.0
aF939.0
aF939.0
aF936.0
aF941.0
aF945.0
aF942.0
aF941.0
aF946.0
aF945.0
aF945.0
aF946.0
aF945.0
aF945.0
aF944.0
aF944.0
aF943.0
aF944.0
aF944.0
aF945.0
aF938.0
aF939.0
aF942.0
aF943.0
aF943.0
aF939.0
aF944.0
aF945.0
aF936.0
aF946.0
aF946.0
aF939.0
aF944.0
aF945.0
aF944.0
aF942.0
aF939.0
aF945.0
aF947.0
aF946.0
aF938.0
aF935.0
aF943.0
aF943.0
aF942.0
aF945.0
aF947.0
aF947.0
aF939.0
aF944.0
aF946.0
aF941.0
aF949.0
aF942.0
aF937.0
aF943.0
aF945.0
asS'workers'
p27
I7
sS'gamma'
p28
F1.0
sS'vcount'
p29
I1000
s.