(dp0
S'niter'
p1
I100
sS'v_ad'
p2
(lp3
I100
aI100
aI100
aI100
aI100
aI100
aI100
aI100
aI100
aI100
aI98
aI100
aI100
aI100
aI100
aI100
aI100
aI100
aI98
aI100
aI100
aI100
aI100
aI100
aI100
aI100
aI100
aI100
aI100
aI100
aI100
aI100
aI100
aI100
aI100
aI100
aI100
aI100
aI100
aI100
aI100
aI100
aI100
aI100
aI100
aI100
aI100
aI100
aI100
aI100
aI100
aI100
aI100
aI100
aI100
aI100
aI100
aI97
aI100
aI100
aI100
aI100
aI100
aI100
aI100
aI100
aI100
aI100
aI98
aI100
aI100
aI100
aI100
aI100
aI100
aI100
aI100
aI100
aI100
aI100
aI100
aI100
aI100
aI94
aI100
aI100
aI100
aI100
aI100
aI100
aI100
aI100
aI100
aI100
aI100
aI100
aI100
aI100
aI100
aI100
asS'trans'
p4
F0.6892001655525245
sS'ecount'
p5
I45990
sS'name'
p6
S'SNAP_FB_1000'
p7
sS't_m'
p8
I50
sS'v_nonad_g'
p9
(lp10
I145
aI7
aI342
aI127
aI293
aI162
aI284
aI66
aI431
aI84
aI396
aI214
aI382
aI306
aI208
aI100
aI682
aI507
aI392
aI644
aI152
aI335
aI621
aI579
aI76
aI39
aI483
aI622
aI619
aI655
aI902
aI159
aI878
aI760
aI267
aI355
aI650
aI647
aI449
aI749
aI494
aI161
aI714
aI365
aI305
aI665
aI497
aI510
aI870
aI713
aI24
aI479
aI967
aI484
aI744
aI453
aI787
aI315
aI356
aI378
aI712
aI535
aI841
aI788
aI893
aI923
aI968
aI925
aI434
aI290
aI903
aI776
aI478
aI471
aI959
aI726
aI450
asS'pedge'
p11
F0.05
sS'r_ad'
p12
(lp13
F512.0
aF535.0
aF514.0
aF510.0
aF509.0
aF527.0
aF498.0
aF550.0
aF508.0
aF492.0
aF545.0
aF499.0
aF519.0
aF505.0
aF529.0
aF499.0
aF496.0
aF508.0
aF533.0
aF482.0
aF525.0
aF522.0
aF522.0
aF500.0
aF515.0
aF473.0
aF525.0
aF497.0
aF511.0
aF480.0
aF513.0
aF484.0
aF520.0
aF490.0
aF495.0
aF525.0
aF522.0
aF490.0
aF506.0
aF500.0
aF492.0
aF494.0
aF493.0
aF512.0
aF511.0
aF487.0
aF506.0
aF512.0
aF532.0
aF528.0
aF539.0
aF486.0
aF508.0
aF515.0
aF511.0
aF517.0
aF522.0
aF535.0
aF494.0
aF498.0
aF523.0
aF525.0
aF507.0
aF477.0
aF524.0
aF481.0
aF529.0
aF504.0
aF530.0
aF478.0
aF522.0
aF514.0
aF532.0
aF494.0
aF514.0
aF509.0
aF486.0
aF519.0
aF495.0
aF463.0
aF491.0
aF530.0
aF506.0
aF539.0
aF531.0
aF516.0
aF530.0
aF503.0
aF501.0
aF513.0
aF515.0
aF495.0
aF507.0
aF526.0
aF476.0
aF522.0
aF526.0
aF481.0
aF502.0
aF464.0
asS'v_nonad_rg'
p14
(lp15
I80
aI594
aI497
aI162
aI385
aI392
aI84
aI76
aI91
aI161
aI88
aI917
aI674
aI744
aI682
aI145
aI584
aI382
aI434
aI597
aI23
aI480
aI655
aI478
aI431
aI256
aI749
aI152
aI274
aI751
aI644
aI635
aI959
aI622
aI363
aI396
aI495
aI378
aI286
aI510
aI923
aI705
aI787
aI288
aI503
aI287
aI658
aI479
aI872
aI822
aI451
aI453
aI909
aI267
aI925
aI903
aI968
aI214
aI571
aI816
aI39
aI98
aI893
aI268
aI159
aI528
aI620
aI293
aI355
aI665
aI67
aI927
aI760
aI994
aI307
aI66
aI342
aI788
aI365
aI870
aI871
aI483
aI878
aI507
aI450
aI290
aI621
aI902
aI714
aI632
aI776
aI24
aI335
aI7
aI494
aI647
aI755
aI579
aI484
aI650
asS'nsim_ad'
p16
I1000
sS'git'
p17
S'6993752'
p18
sS'kratio'
p19
I10
sS'r_nonad_g'
p20
(lp21
F510.0
aF515.0
aF520.0
aF516.0
aF495.0
aF518.0
aF498.0
aF547.0
aF523.0
aF500.0
aF538.0
aF515.0
aF528.0
aF495.0
aF520.0
aF511.0
aF500.0
aF521.0
aF531.0
aF516.0
aF551.0
aF534.0
aF546.0
aF492.0
aF515.0
aF492.0
aF522.0
aF506.0
aF517.0
aF499.0
aF506.0
aF529.0
aF535.0
aF539.0
aF492.0
aF524.0
aF526.0
aF514.0
aF544.0
aF529.0
aF497.0
aF522.0
aF499.0
aF509.0
aF525.0
aF523.0
aF547.0
aF511.0
aF549.0
aF535.0
aF525.0
aF502.0
aF529.0
aF543.0
aF492.0
aF509.0
aF497.0
aF544.0
aF505.0
aF498.0
aF518.0
aF527.0
aF512.0
aF500.0
aF533.0
aF506.0
aF513.0
aF529.0
aF539.0
aF506.0
aF543.0
aF500.0
aF536.0
aF513.0
aF507.0
aF532.0
aF491.0
aF501.0
aF510.0
aF514.0
aF498.0
aF535.0
aF518.0
aF531.0
aF545.0
aF542.0
aF521.0
aF507.0
aF538.0
aF522.0
aF532.0
aF532.0
aF501.0
aF519.0
aF500.0
aF523.0
aF497.0
aF503.0
aF486.0
aF517.0
asS'nsim_nonad'
p22
I10000
sS't_h'
p23
I6
sS't_s'
p24
I35
sS'r_nonad_rg'
p25
(lp26
F491.0
aF500.0
aF504.0
aF492.0
aF490.0
aF487.0
aF479.0
aF518.0
aF502.0
aF483.0
aF503.0
aF490.0
aF493.0
aF491.0
aF513.0
aF476.0
aF481.0
aF509.0
aF512.0
aF487.0
aF510.0
aF506.0
aF503.0
aF478.0
aF500.0
aF466.0
aF500.0
aF483.0
aF497.0
aF481.0
aF489.0
aF469.0
aF523.0
aF519.0
aF496.0
aF500.0
aF509.0
aF510.0
aF505.0
aF496.0
aF485.0
aF497.0
aF488.0
aF470.0
aF500.0
aF506.0
aF515.0
aF487.0
aF512.0
aF490.0
aF495.0
aF484.0
aF503.0
aF509.0
aF489.0
aF504.0
aF517.0
aF533.0
aF480.0
aF486.0
aF509.0
aF499.0
aF507.0
aF486.0
aF498.0
aF484.0
aF492.0
aF491.0
aF511.0
aF490.0
aF508.0
aF489.0
aF507.0
aF493.0
aF483.0
aF507.0
aF483.0
aF488.0
aF485.0
aF487.0
aF490.0
aF522.0
aF506.0
aF505.0
aF504.0
aF508.0
aF494.0
aF488.0
aF512.0
aF511.0
aF491.0
aF512.0
aF497.0
aF490.0
aF495.0
aF512.0
aF494.0
aF502.0
aF486.0
aF499.0
asS'workers'
p27
I3
sS'gamma'
p28
F2.0
sS'vcount'
p29
I1000
s.