(dp0
S'niter'
p1
I100
sS'v_ad'
p2
(lp3
I30
aI26
aI24
aI32
aI32
aI28
aI26
aI32
aI31
aI33
aI31
aI32
aI25
aI32
aI29
aI32
aI27
aI25
aI27
aI22
aI27
aI31
aI20
aI29
aI32
aI35
aI31
aI31
aI26
aI30
aI31
aI37
aI24
aI24
aI27
aI33
aI27
aI36
aI29
aI30
aI30
aI27
aI31
aI33
aI29
aI24
aI34
aI31
aI35
aI29
aI32
aI26
aI30
aI31
aI31
aI36
aI33
aI35
aI29
aI25
aI26
aI29
aI30
aI31
aI29
aI33
aI32
aI28
aI33
aI27
aI28
aI26
aI27
aI27
aI32
aI32
aI30
aI30
aI33
aI28
aI32
aI34
aI30
aI36
aI35
aI26
aI31
aI37
aI22
aI28
aI27
aI29
aI34
aI32
aI36
aI25
aI34
aI24
aI31
aI32
asS'trans'
p4
F0.6892001655525245
sS'ecount'
p5
I45990
sS'name'
p6
S'SNAP_FB_1000'
p7
sS't_m'
p8
I14
sS'v_nonad_g'
p9
(lp10
I145
aI431
aI293
aI916
aI396
aI342
aI978
aI768
aI689
aI935
aI870
aI682
asS'pedge'
p11
F0.6
sS'r_ad'
p12
(lp13
F918.0
aF921.0
aF928.0
aF915.0
aF910.0
aF921.0
aF921.0
aF914.0
aF919.0
aF910.0
aF915.0
aF917.0
aF926.0
aF921.0
aF918.0
aF905.0
aF920.0
aF928.0
aF920.0
aF926.0
aF922.0
aF916.0
aF935.0
aF917.0
aF914.0
aF909.0
aF914.0
aF918.0
aF929.0
aF915.0
aF913.0
aF904.0
aF936.0
aF928.0
aF925.0
aF915.0
aF924.0
aF907.0
aF915.0
aF917.0
aF914.0
aF928.0
aF912.0
aF909.0
aF914.0
aF930.0
aF908.0
aF920.0
aF906.0
aF915.0
aF910.0
aF925.0
aF913.0
aF915.0
aF912.0
aF899.0
aF911.0
aF906.0
aF920.0
aF926.0
aF923.0
aF920.0
aF911.0
aF913.0
aF917.0
aF908.0
aF912.0
aF916.0
aF919.0
aF918.0
aF922.0
aF927.0
aF928.0
aF923.0
aF915.0
aF905.0
aF921.0
aF917.0
aF912.0
aF921.0
aF913.0
aF906.0
aF918.0
aF910.0
aF902.0
aF921.0
aF908.0
aF900.0
aF926.0
aF918.0
aF921.0
aF921.0
aF909.0
aF911.0
aF913.0
aF922.0
aF913.0
aF927.0
aF914.0
aF915.0
asS'v_nonad_rg'
p14
(lp15
I48
aI755
aI713
aI479
aI979
aI127
aI994
aI484
aI644
aI927
aI783
aI840
aI734
aI145
aI305
aI7
aI674
aI870
aI886
aI925
aI689
aI978
aI760
aI902
aI431
aI935
aI396
aI342
asS'nsim_ad'
p16
I1000
sS'git'
p17
S'6993752'
p18
sS'kratio'
p19
I10
sS'r_nonad_g'
p20
(lp21
F953.0
aF954.0
aF943.0
aF946.0
aF947.0
aF945.0
aF946.0
aF955.0
aF959.0
aF950.0
aF950.0
aF957.0
aF941.0
aF954.0
aF948.0
aF938.0
aF941.0
aF956.0
aF959.0
aF950.0
aF951.0
aF939.0
aF952.0
aF941.0
aF938.0
aF950.0
aF951.0
aF946.0
aF954.0
aF943.0
aF932.0
aF949.0
aF950.0
aF944.0
aF957.0
aF952.0
aF956.0
aF951.0
aF950.0
aF951.0
aF946.0
aF953.0
aF949.0
aF948.0
aF955.0
aF955.0
aF946.0
aF957.0
aF942.0
aF941.0
aF941.0
aF953.0
aF949.0
aF953.0
aF928.0
aF936.0
aF948.0
aF947.0
aF955.0
aF953.0
aF950.0
aF947.0
aF942.0
aF945.0
aF950.0
aF951.0
aF945.0
aF945.0
aF953.0
aF944.0
aF952.0
aF955.0
aF945.0
aF948.0
aF951.0
aF948.0
aF953.0
aF948.0
aF951.0
aF958.0
aF947.0
aF934.0
aF946.0
aF954.0
aF948.0
aF953.0
aF944.0
aF944.0
aF951.0
aF952.0
aF945.0
aF948.0
aF945.0
aF947.0
aF955.0
aF948.0
aF946.0
aF947.0
aF954.0
aF961.0
asS'nsim_nonad'
p22
I10000
sS't_h'
p23
I1
sS't_s'
p24
I44
sS'r_nonad_rg'
p25
(lp26
F919.0
aF924.0
aF918.0
aF912.0
aF922.0
aF915.0
aF919.0
aF922.0
aF923.0
aF912.0
aF920.0
aF922.0
aF919.0
aF924.0
aF919.0
aF907.0
aF916.0
aF926.0
aF920.0
aF914.0
aF922.0
aF909.0
aF920.0
aF921.0
aF915.0
aF917.0
aF925.0
aF916.0
aF922.0
aF907.0
aF911.0
aF920.0
aF924.0
aF917.0
aF924.0
aF915.0
aF926.0
aF922.0
aF918.0
aF920.0
aF918.0
aF919.0
aF921.0
aF916.0
aF925.0
aF922.0
aF917.0
aF925.0
aF922.0
aF920.0
aF913.0
aF920.0
aF920.0
aF920.0
aF917.0
aF917.0
aF917.0
aF918.0
aF920.0
aF918.0
aF920.0
aF919.0
aF918.0
aF914.0
aF923.0
aF918.0
aF915.0
aF921.0
aF917.0
aF911.0
aF919.0
aF919.0
aF908.0
aF919.0
aF924.0
aF910.0
aF923.0
aF910.0
aF917.0
aF921.0
aF919.0
aF912.0
aF921.0
aF915.0
aF921.0
aF914.0
aF913.0
aF914.0
aF917.0
aF920.0
aF915.0
aF920.0
aF913.0
aF921.0
aF924.0
aF920.0
aF924.0
aF923.0
aF921.0
aF926.0
asS'workers'
p27
I3
sS'gamma'
p28
F2.0
sS'vcount'
p29
I1000
s.