(dp0
S'niter'
p1
I100
sS'v_ad'
p2
(lp3
I29
aI32
aI32
aI28
aI32
aI32
aI28
aI35
aI33
aI29
aI35
aI32
aI38
aI36
aI32
aI37
aI35
aI38
aI31
aI29
aI35
aI39
aI30
aI41
aI39
aI32
aI36
aI26
aI38
aI33
aI29
aI32
aI27
aI29
aI29
aI33
aI25
aI27
aI38
aI31
aI33
aI25
aI33
aI29
aI31
aI27
aI35
aI30
aI37
aI39
aI37
aI36
aI31
aI31
aI32
aI34
aI33
aI36
aI36
aI35
aI33
aI33
aI30
aI32
aI32
aI39
aI37
aI36
aI35
aI40
aI23
aI27
aI33
aI32
aI36
aI25
aI33
aI35
aI38
aI30
aI32
aI40
aI37
aI29
aI25
aI31
aI23
aI30
aI34
aI33
aI33
aI25
aI35
aI35
aI34
aI35
aI38
aI35
aI31
aI35
asS'trans'
p4
F0.6892001655525245
sS'ecount'
p5
I45990
sS'name'
p6
S'SNAP_FB_1000'
p7
sS't_m'
p8
I14
sS'v_nonad_g'
p9
(lp10
I145
aI431
aI293
aI916
aI396
aI342
aI978
aI768
aI689
aI935
aI682
aI870
aI760
aI776
asS'pedge'
p11
F0.5
sS'r_ad'
p12
(lp13
F910.0
aF904.0
aF908.0
aF921.0
aF911.0
aF909.0
aF916.0
aF905.0
aF906.0
aF915.0
aF899.0
aF911.0
aF893.0
aF898.0
aF908.0
aF902.0
aF908.0
aF904.0
aF909.0
aF906.0
aF901.0
aF897.0
aF913.0
aF896.0
aF890.0
aF904.0
aF903.0
aF915.0
aF902.0
aF909.0
aF915.0
aF912.0
aF918.0
aF909.0
aF913.0
aF908.0
aF928.0
aF911.0
aF896.0
aF909.0
aF906.0
aF919.0
aF909.0
aF913.0
aF904.0
aF917.0
aF899.0
aF914.0
aF901.0
aF897.0
aF901.0
aF896.0
aF918.0
aF912.0
aF904.0
aF905.0
aF910.0
aF902.0
aF901.0
aF899.0
aF903.0
aF905.0
aF907.0
aF904.0
aF907.0
aF892.0
aF898.0
aF899.0
aF899.0
aF887.0
aF924.0
aF919.0
aF913.0
aF907.0
aF899.0
aF916.0
aF911.0
aF905.0
aF891.0
aF913.0
aF904.0
aF893.0
aF893.0
aF907.0
aF921.0
aF912.0
aF929.0
aF913.0
aF906.0
aF907.0
aF902.0
aF924.0
aF898.0
aF906.0
aF902.0
aF895.0
aF897.0
aF910.0
aF908.0
aF901.0
asS'v_nonad_rg'
p14
(lp15
I517
aI904
aI284
aI479
aI760
aI713
aI994
aI51
aI776
aI682
aI3
aI711
aI925
aI871
aI734
aI293
aI942
aI378
aI978
aI841
aI887
aI899
aI483
aI935
aI431
aI507
aI267
aI342
aI886
aI655
aI689
aI916
aI145
asS'nsim_ad'
p16
I1000
sS'git'
p17
S'6993752'
p18
sS'kratio'
p19
I10
sS'r_nonad_g'
p20
(lp21
F939.0
aF935.0
aF938.0
aF948.0
aF937.0
aF941.0
aF943.0
aF943.0
aF936.0
aF943.0
aF931.0
aF943.0
aF932.0
aF938.0
aF944.0
aF923.0
aF940.0
aF938.0
aF942.0
aF927.0
aF926.0
aF944.0
aF941.0
aF946.0
aF934.0
aF927.0
aF933.0
aF932.0
aF943.0
aF947.0
aF936.0
aF949.0
aF945.0
aF932.0
aF938.0
aF938.0
aF944.0
aF938.0
aF940.0
aF939.0
aF934.0
aF945.0
aF943.0
aF936.0
aF940.0
aF949.0
aF935.0
aF925.0
aF931.0
aF939.0
aF937.0
aF939.0
aF931.0
aF938.0
aF942.0
aF935.0
aF948.0
aF935.0
aF929.0
aF934.0
aF933.0
aF940.0
aF940.0
aF943.0
aF941.0
aF932.0
aF942.0
aF934.0
aF936.0
aF938.0
aF943.0
aF924.0
aF943.0
aF934.0
aF939.0
aF941.0
aF931.0
aF940.0
aF919.0
aF938.0
aF919.0
aF930.0
aF930.0
aF944.0
aF934.0
aF936.0
aF949.0
aF940.0
aF947.0
aF937.0
aF937.0
aF946.0
aF934.0
aF944.0
aF943.0
aF947.0
aF948.0
aF955.0
aF941.0
aF935.0
asS'nsim_nonad'
p22
I10000
sS't_h'
p23
I1
sS't_s'
p24
I7
sS'r_nonad_rg'
p25
(lp26
F906.0
aF905.0
aF913.0
aF906.0
aF901.0
aF908.0
aF905.0
aF909.0
aF902.0
aF907.0
aF908.0
aF913.0
aF898.0
aF906.0
aF910.0
aF899.0
aF904.0
aF905.0
aF909.0
aF900.0
aF898.0
aF913.0
aF903.0
aF910.0
aF896.0
aF901.0
aF903.0
aF907.0
aF907.0
aF909.0
aF905.0
aF910.0
aF911.0
aF900.0
aF904.0
aF909.0
aF911.0
aF904.0
aF909.0
aF912.0
aF898.0
aF911.0
aF911.0
aF909.0
aF906.0
aF912.0
aF907.0
aF906.0
aF905.0
aF904.0
aF903.0
aF906.0
aF902.0
aF904.0
aF907.0
aF906.0
aF911.0
aF901.0
aF897.0
aF907.0
aF902.0
aF907.0
aF906.0
aF906.0
aF906.0
aF905.0
aF911.0
aF899.0
aF901.0
aF906.0
aF910.0
aF904.0
aF905.0
aF906.0
aF902.0
aF903.0
aF900.0
aF910.0
aF903.0
aF905.0
aF892.0
aF903.0
aF906.0
aF909.0
aF907.0
aF910.0
aF907.0
aF905.0
aF909.0
aF902.0
aF901.0
aF910.0
aF904.0
aF905.0
aF903.0
aF906.0
aF910.0
aF915.0
aF908.0
aF905.0
asS'workers'
p27
I3
sS'gamma'
p28
F2.0
sS'vcount'
p29
I1000
s.