(dp0
S'niter'
p1
I100
sS'v_ad'
p2
(lp3
I82
aI89
aI78
aI82
aI84
aI88
aI71
aI73
aI79
aI86
aI70
aI99
aI74
aI78
aI75
aI82
aI84
aI71
aI76
aI90
aI76
aI85
aI91
aI69
aI78
aI100
aI86
aI82
aI82
aI86
aI76
aI83
aI73
aI85
aI85
aI84
aI71
aI77
aI78
aI68
aI80
aI73
aI73
aI83
aI80
aI63
aI77
aI84
aI81
aI78
aI84
aI72
aI79
aI70
aI89
aI72
aI76
aI74
aI82
aI71
aI74
aI59
aI76
aI90
aI81
aI73
aI85
aI82
aI72
aI85
aI72
aI74
aI80
aI72
aI86
aI76
aI80
aI73
aI88
aI75
aI78
aI69
aI88
aI74
aI87
aI75
aI86
aI71
aI83
aI81
aI79
aI79
aI85
aI88
aI88
aI87
aI80
aI81
aI75
aI82
asS'trans'
p4
F0.6892001655525245
sS'ecount'
p5
I45990
sS'name'
p6
S'SNAP_FB_1000'
p7
sS't_m'
p8
I47
sS'v_nonad_g'
p9
(lp10
I145
aI7
aI396
aI431
aI342
aI644
aI293
aI208
aI284
aI682
aI382
aI162
aI507
aI655
aI214
aI152
aI902
aI619
aI392
aI335
aI579
aI378
aI306
aI749
aI621
aI841
aI916
aI787
aI267
aI453
aI665
aI760
aI622
aI650
aI967
aI978
aI768
aI497
aI935
aI483
aI127
aI870
aI712
aI434
aI878
aI923
aI355
aI886
asS'pedge'
p11
F0.1
sS'r_ad'
p12
(lp13
F684.0
aF670.0
aF696.0
aF679.0
aF680.0
aF684.0
aF709.0
aF698.0
aF695.0
aF679.0
aF716.0
aF655.0
aF710.0
aF695.0
aF707.0
aF692.0
aF674.0
aF712.0
aF696.0
aF675.0
aF692.0
aF698.0
aF671.0
aF722.0
aF700.0
aF653.0
aF680.0
aF685.0
aF697.0
aF678.0
aF695.0
aF689.0
aF706.0
aF689.0
aF682.0
aF698.0
aF706.0
aF704.0
aF707.0
aF720.0
aF679.0
aF701.0
aF710.0
aF698.0
aF698.0
aF729.0
aF706.0
aF685.0
aF696.0
aF704.0
aF690.0
aF705.0
aF691.0
aF704.0
aF685.0
aF704.0
aF703.0
aF703.0
aF690.0
aF706.0
aF703.0
aF735.0
aF707.0
aF666.0
aF693.0
aF706.0
aF683.0
aF700.0
aF722.0
aF682.0
aF722.0
aF706.0
aF693.0
aF702.0
aF687.0
aF701.0
aF688.0
aF706.0
aF682.0
aF696.0
aF688.0
aF700.0
aF689.0
aF708.0
aF684.0
aF707.0
aF670.0
aF715.0
aF686.0
aF691.0
aF687.0
aF686.0
aF686.0
aF670.0
aF674.0
aF692.0
aF694.0
aF684.0
aF702.0
aF680.0
asS'v_nonad_rg'
p14
(lp15
I77
aI288
aI5
aI293
aI667
aI878
aI902
aI306
aI80
aI159
aI838
aI494
aI635
aI363
aI691
aI658
aI749
aI378
aI674
aI804
aI479
aI597
aI39
aI712
aI208
aI478
aI799
aI66
aI927
aI893
aI735
aI909
aI968
aI787
aI734
aI622
aI872
aI355
aI507
aI822
aI380
aI857
aI683
aI214
aI713
aI510
aI425
aI162
aI621
aI633
aI744
aI665
aI707
aI396
aI967
aI776
aI284
aI152
aI994
aI800
aI84
aI161
aI655
aI768
aI760
aI579
aI682
aI7
aI483
aI647
aI886
aI659
aI431
aI841
aI127
aI145
aI342
aI382
aI392
aI644
asS'nsim_ad'
p16
I1000
sS'git'
p17
S'6993752'
p18
sS'kratio'
p19
I10
sS'r_nonad_g'
p20
(lp21
F683.0
aF695.0
aF704.0
aF689.0
aF710.0
aF684.0
aF725.0
aF707.0
aF718.0
aF706.0
aF719.0
aF678.0
aF715.0
aF708.0
aF717.0
aF718.0
aF722.0
aF709.0
aF709.0
aF710.0
aF702.0
aF711.0
aF711.0
aF729.0
aF735.0
aF678.0
aF678.0
aF699.0
aF699.0
aF693.0
aF713.0
aF713.0
aF711.0
aF679.0
aF704.0
aF694.0
aF727.0
aF715.0
aF713.0
aF700.0
aF704.0
aF731.0
aF733.0
aF717.0
aF696.0
aF745.0
aF742.0
aF723.0
aF723.0
aF715.0
aF718.0
aF700.0
aF717.0
aF707.0
aF725.0
aF714.0
aF725.0
aF697.0
aF714.0
aF705.0
aF729.0
aF728.0
aF728.0
aF708.0
aF729.0
aF719.0
aF712.0
aF714.0
aF734.0
aF706.0
aF746.0
aF725.0
aF692.0
aF718.0
aF671.0
aF719.0
aF695.0
aF696.0
aF694.0
aF709.0
aF723.0
aF707.0
aF720.0
aF724.0
aF697.0
aF710.0
aF693.0
aF732.0
aF703.0
aF703.0
aF702.0
aF706.0
aF714.0
aF694.0
aF693.0
aF696.0
aF700.0
aF714.0
aF731.0
aF677.0
asS'nsim_nonad'
p22
I10000
sS't_h'
p23
I2
sS't_s'
p24
I21
sS'r_nonad_rg'
p25
(lp26
F668.0
aF666.0
aF691.0
aF674.0
aF662.0
aF678.0
aF691.0
aF684.0
aF688.0
aF676.0
aF698.0
aF673.0
aF678.0
aF671.0
aF684.0
aF689.0
aF686.0
aF665.0
aF678.0
aF680.0
aF676.0
aF678.0
aF676.0
aF691.0
aF699.0
aF663.0
aF674.0
aF668.0
aF659.0
aF667.0
aF679.0
aF683.0
aF691.0
aF660.0
aF681.0
aF684.0
aF681.0
aF694.0
aF694.0
aF692.0
aF673.0
aF672.0
aF692.0
aF686.0
aF677.0
aF702.0
aF686.0
aF683.0
aF680.0
aF673.0
aF676.0
aF678.0
aF677.0
aF683.0
aF679.0
aF691.0
aF669.0
aF690.0
aF684.0
aF678.0
aF685.0
aF685.0
aF694.0
aF680.0
aF684.0
aF674.0
aF684.0
aF687.0
aF680.0
aF681.0
aF703.0
aF696.0
aF684.0
aF668.0
aF678.0
aF686.0
aF674.0
aF664.0
aF680.0
aF696.0
aF675.0
aF676.0
aF676.0
aF703.0
aF666.0
aF677.0
aF658.0
aF687.0
aF689.0
aF681.0
aF679.0
aF668.0
aF667.0
aF667.0
aF655.0
aF677.0
aF649.0
aF661.0
aF685.0
aF665.0
asS'workers'
p27
I3
sS'gamma'
p28
F2.0
sS'vcount'
p29
I1000
s.