(dp0
S'niter'
p1
I100
sS'v_ad'
p2
(lp3
I50
aI50
aI50
aI50
aI50
aI50
aI50
aI50
aI50
aI50
aI50
aI50
aI50
aI50
aI50
aI50
aI50
aI50
aI50
aI50
aI50
aI50
aI50
aI50
aI50
aI50
aI50
aI50
aI50
aI50
aI50
aI50
aI50
aI50
aI50
aI50
aI50
aI50
aI50
aI50
aI50
aI50
aI50
aI50
aI50
aI50
aI50
aI50
aI50
aI50
aI50
aI50
aI50
aI50
aI50
aI50
aI50
aI50
aI50
aI50
aI50
aI50
aI50
aI50
aI50
aI50
aI50
aI50
aI50
aI50
aI50
aI50
aI50
aI50
aI50
aI50
aI50
aI50
aI50
aI50
aI50
aI50
aI50
aI50
aI50
aI50
aI50
aI50
aI50
aI50
aI50
aI50
aI50
aI50
aI50
aI50
aI50
aI50
aI50
aI50
asS'trans'
p4
F0.8047941557912676
sS'ecount'
p5
I13033
sS'name'
p6
S'SNAP_GR_1000'
p7
sS't_m'
p8
I59
sS'v_nonad_g'
p9
(lp10
I48
aI172
aI79
aI424
aI391
aI469
aI783
aI393
aI462
aI544
aI641
aI146
aI284
aI518
aI846
aI864
aI256
aI657
aI419
aI845
aI948
aI851
aI547
aI933
aI844
aI929
aI852
aI504
aI581
aI695
aI715
aI930
aI727
aI900
aI939
aI673
aI484
aI788
aI945
aI756
aI785
aI649
aI631
aI500
asS'pedge'
p11
F0.3
sS'r_ad'
p12
(lp13
F798.0
aF830.0
aF823.0
aF837.0
aF839.0
aF823.0
aF803.0
aF823.0
aF815.0
aF825.0
aF820.0
aF833.0
aF826.0
aF812.0
aF803.0
aF823.0
aF805.0
aF827.0
aF821.0
aF844.0
aF803.0
aF809.0
aF841.0
aF821.0
aF823.0
aF838.0
aF816.0
aF802.0
aF811.0
aF824.0
aF807.0
aF831.0
aF825.0
aF832.0
aF834.0
aF825.0
aF808.0
aF814.0
aF846.0
aF849.0
aF825.0
aF833.0
aF824.0
aF788.0
aF828.0
aF812.0
aF819.0
aF834.0
aF816.0
aF821.0
aF820.0
aF816.0
aF798.0
aF807.0
aF812.0
aF827.0
aF823.0
aF840.0
aF836.0
aF814.0
aF807.0
aF783.0
aF827.0
aF818.0
aF835.0
aF818.0
aF809.0
aF789.0
aF825.0
aF833.0
aF843.0
aF804.0
aF810.0
aF839.0
aF823.0
aF835.0
aF824.0
aF821.0
aF825.0
aF814.0
aF820.0
aF812.0
aF815.0
aF819.0
aF823.0
aF841.0
aF804.0
aF820.0
aF819.0
aF804.0
aF812.0
aF833.0
aF830.0
aF830.0
aF828.0
aF834.0
aF813.0
aF814.0
aF837.0
aF824.0
asS'v_nonad_rg'
p14
(lp15
I7
aI189
aI427
aI109
aI245
aI934
aI488
aI916
aI760
aI316
aI544
aI970
aI657
aI973
aI630
aI713
aI651
aI846
aI995
aI969
aI490
aI639
aI911
aI930
aI756
aI579
aI641
aI788
aI956
aI571
aI938
aI500
aI716
aI673
aI504
aI945
aI631
aI785
aI893
aI914
aI547
aI873
aI899
aI852
aI748
aI842
aI851
aI949
aI885
asS'nsim_ad'
p16
I1000
sS'git'
p17
S'49779d6'
p18
sS'kratio'
p19
I20
sS'r_nonad_g'
p20
(lp21
F748.0
aF789.0
aF801.0
aF805.0
aF798.0
aF786.0
aF769.0
aF777.0
aF781.0
aF786.0
aF759.0
aF808.0
aF746.0
aF784.0
aF772.0
aF787.0
aF774.0
aF803.0
aF784.0
aF804.0
aF783.0
aF783.0
aF803.0
aF789.0
aF777.0
aF794.0
aF799.0
aF769.0
aF780.0
aF790.0
aF766.0
aF795.0
aF776.0
aF802.0
aF770.0
aF750.0
aF782.0
aF791.0
aF807.0
aF815.0
aF792.0
aF798.0
aF808.0
aF760.0
aF781.0
aF765.0
aF778.0
aF783.0
aF783.0
aF794.0
aF774.0
aF779.0
aF781.0
aF779.0
aF772.0
aF781.0
aF808.0
aF797.0
aF798.0
aF768.0
aF777.0
aF761.0
aF784.0
aF777.0
aF786.0
aF777.0
aF777.0
aF766.0
aF778.0
aF792.0
aF803.0
aF784.0
aF785.0
aF793.0
aF780.0
aF810.0
aF775.0
aF793.0
aF813.0
aF783.0
aF792.0
aF781.0
aF792.0
aF791.0
aF766.0
aF798.0
aF778.0
aF790.0
aF773.0
aF768.0
aF787.0
aF792.0
aF802.0
aF787.0
aF804.0
aF786.0
aF781.0
aF767.0
aF810.0
aF781.0
asS'nsim_nonad'
p22
I10000
sS't_h'
p23
I0
sS't_s'
p24
I52
sS'r_nonad_rg'
p25
(lp26
F765.0
aF780.0
aF796.0
aF800.0
aF813.0
aF793.0
aF771.0
aF784.0
aF779.0
aF788.0
aF763.0
aF798.0
aF749.0
aF784.0
aF776.0
aF785.0
aF772.0
aF801.0
aF781.0
aF803.0
aF773.0
aF764.0
aF812.0
aF796.0
aF754.0
aF792.0
aF775.0
aF764.0
aF767.0
aF792.0
aF776.0
aF795.0
aF780.0
aF795.0
aF758.0
aF777.0
aF778.0
aF792.0
aF803.0
aF811.0
aF783.0
aF790.0
aF797.0
aF755.0
aF777.0
aF765.0
aF779.0
aF791.0
aF779.0
aF789.0
aF770.0
aF785.0
aF774.0
aF779.0
aF752.0
aF779.0
aF805.0
aF802.0
aF805.0
aF775.0
aF766.0
aF750.0
aF786.0
aF773.0
aF794.0
aF785.0
aF758.0
aF749.0
aF775.0
aF788.0
aF797.0
aF782.0
aF780.0
aF786.0
aF767.0
aF807.0
aF774.0
aF790.0
aF801.0
aF774.0
aF787.0
aF784.0
aF790.0
aF785.0
aF768.0
aF802.0
aF766.0
aF794.0
aF770.0
aF772.0
aF784.0
aF797.0
aF794.0
aF784.0
aF796.0
aF788.0
aF772.0
aF774.0
aF811.0
aF768.0
asS'workers'
p27
I7
sS'gamma'
p28
F1.0
sS'vcount'
p29
I1000
s.