(dp0
S'niter'
p1
I100
sS'v_ad'
p2
(lp3
I31
aI33
aI22
aI24
aI31
aI34
aI34
aI41
aI38
aI35
aI29
aI42
aI26
aI30
aI32
aI37
aI31
aI32
aI31
aI22
aI29
aI35
aI46
aI37
aI28
aI34
aI39
aI38
aI41
aI30
aI26
aI36
aI28
aI31
aI34
aI38
aI44
aI30
aI41
aI36
aI28
aI27
aI30
aI34
aI47
aI29
aI38
aI32
aI39
aI41
aI34
aI42
aI39
aI43
aI34
aI38
aI29
aI32
aI35
aI41
aI33
aI38
aI37
aI40
aI34
aI42
aI32
aI31
aI45
aI25
aI29
aI28
aI41
aI33
aI34
aI38
aI35
aI36
aI47
aI28
aI32
aI39
aI37
aI28
aI42
aI38
aI27
aI33
aI28
aI44
aI32
aI37
aI44
aI28
aI42
aI32
aI45
aI41
aI23
aI36
asS'trans'
p4
F0.8047941557912676
sS'ecount'
p5
I13033
sS'name'
p6
S'SNAP_GR_1000'
p7
sS't_m'
p8
I13
sS'v_nonad_g'
p9
(lp10
I136
aI201
aI437
aI78
aI776
aI418
aI641
aI910
aI972
aI639
aI482
aI852
aI523
aI978
aI650
aI651
aI900
aI930
aI490
aI785
aI788
aI673
aI504
aI666
asS'pedge'
p11
F0.4
sS'r_ad'
p12
(lp13
F900.0
aF892.0
aF906.0
aF914.0
aF897.0
aF903.0
aF895.0
aF882.0
aF888.0
aF896.0
aF901.0
aF888.0
aF911.0
aF894.0
aF911.0
aF899.0
aF881.0
aF894.0
aF902.0
aF907.0
aF895.0
aF891.0
aF884.0
aF896.0
aF887.0
aF896.0
aF894.0
aF886.0
aF880.0
aF907.0
aF905.0
aF885.0
aF913.0
aF905.0
aF907.0
aF869.0
aF879.0
aF895.0
aF885.0
aF899.0
aF913.0
aF906.0
aF906.0
aF900.0
aF880.0
aF902.0
aF888.0
aF896.0
aF888.0
aF888.0
aF898.0
aF881.0
aF884.0
aF887.0
aF893.0
aF889.0
aF904.0
aF904.0
aF896.0
aF885.0
aF903.0
aF891.0
aF888.0
aF889.0
aF894.0
aF884.0
aF899.0
aF912.0
aF884.0
aF903.0
aF901.0
aF904.0
aF887.0
aF893.0
aF896.0
aF900.0
aF889.0
aF883.0
aF888.0
aF901.0
aF902.0
aF884.0
aF893.0
aF908.0
aF888.0
aF888.0
aF903.0
aF895.0
aF908.0
aF876.0
aF903.0
aF890.0
aF882.0
aF898.0
aF897.0
aF897.0
aF883.0
aF886.0
aF912.0
aF894.0
asS'v_nonad_rg'
p14
(lp15
I4
aI207
aI114
aI441
aI482
aI404
aI706
aI846
aI942
aI581
aI972
aI651
aI900
aI698
aI929
aI558
aI782
aI704
aI650
aI785
aI945
aI978
aI686
aI673
aI717
asS'nsim_ad'
p16
I1000
sS'git'
p17
S'49779d6'
p18
sS'kratio'
p19
I20
sS'r_nonad_g'
p20
(lp21
F878.0
aF863.0
aF881.0
aF891.0
aF868.0
aF869.0
aF872.0
aF864.0
aF878.0
aF874.0
aF871.0
aF857.0
aF892.0
aF881.0
aF883.0
aF858.0
aF854.0
aF870.0
aF875.0
aF888.0
aF870.0
aF875.0
aF842.0
aF872.0
aF842.0
aF863.0
aF859.0
aF859.0
aF858.0
aF882.0
aF885.0
aF864.0
aF893.0
aF888.0
aF876.0
aF841.0
aF856.0
aF869.0
aF870.0
aF868.0
aF892.0
aF885.0
aF881.0
aF869.0
aF852.0
aF885.0
aF862.0
aF859.0
aF857.0
aF843.0
aF868.0
aF858.0
aF858.0
aF862.0
aF866.0
aF855.0
aF878.0
aF878.0
aF858.0
aF828.0
aF880.0
aF847.0
aF867.0
aF864.0
aF860.0
aF851.0
aF879.0
aF883.0
aF858.0
aF884.0
aF871.0
aF884.0
aF843.0
aF866.0
aF871.0
aF871.0
aF874.0
aF863.0
aF862.0
aF885.0
aF859.0
aF848.0
aF875.0
aF877.0
aF863.0
aF861.0
aF877.0
aF872.0
aF883.0
aF854.0
aF880.0
aF860.0
aF848.0
aF876.0
aF878.0
aF869.0
aF855.0
aF849.0
aF849.0
aF863.0
asS'nsim_nonad'
p22
I10000
sS't_h'
p23
I1
sS't_s'
p24
I22
sS'r_nonad_rg'
p25
(lp26
F877.0
aF870.0
aF880.0
aF892.0
aF868.0
aF864.0
aF869.0
aF864.0
aF873.0
aF874.0
aF873.0
aF852.0
aF889.0
aF886.0
aF886.0
aF869.0
aF853.0
aF869.0
aF873.0
aF885.0
aF872.0
aF867.0
aF840.0
aF862.0
aF838.0
aF865.0
aF860.0
aF855.0
aF860.0
aF881.0
aF886.0
aF861.0
aF890.0
aF889.0
aF886.0
aF837.0
aF855.0
aF867.0
aF871.0
aF867.0
aF891.0
aF890.0
aF877.0
aF866.0
aF854.0
aF889.0
aF861.0
aF861.0
aF854.0
aF851.0
aF872.0
aF863.0
aF861.0
aF864.0
aF866.0
aF847.0
aF878.0
aF867.0
aF866.0
aF833.0
aF875.0
aF856.0
aF863.0
aF865.0
aF860.0
aF853.0
aF873.0
aF884.0
aF848.0
aF884.0
aF876.0
aF879.0
aF844.0
aF867.0
aF872.0
aF871.0
aF871.0
aF867.0
aF855.0
aF881.0
aF863.0
aF853.0
aF873.0
aF875.0
aF876.0
aF863.0
aF876.0
aF870.0
aF880.0
aF841.0
aF881.0
aF855.0
aF849.0
aF876.0
aF875.0
aF868.0
aF856.0
aF852.0
aF847.0
aF864.0
asS'workers'
p27
I7
sS'gamma'
p28
F1.0
sS'vcount'
p29
I1000
s.