(dp0
S'niter'
p1
I100
sS'v_ad'
p2
(lp3
I50
aI50
aI50
aI50
aI50
aI50
aI50
aI50
aI50
aI50
aI50
aI50
aI50
aI50
aI50
aI50
aI50
aI50
aI50
aI50
aI50
aI50
aI50
aI50
aI50
aI50
aI50
aI50
aI50
aI50
aI50
aI50
aI50
aI50
aI50
aI50
aI50
aI50
aI50
aI50
aI50
aI50
aI50
aI50
aI50
aI50
aI50
aI50
aI50
aI50
aI50
aI50
aI50
aI50
aI50
aI50
aI50
aI50
aI50
aI50
aI50
aI50
aI50
aI50
aI50
aI50
aI50
aI50
aI50
aI50
aI50
aI50
aI50
aI50
aI50
aI50
aI50
aI50
aI50
aI50
aI50
aI50
aI50
aI50
aI50
aI50
aI50
aI50
aI50
aI50
aI50
aI50
aI50
aI50
aI50
aI50
aI50
aI50
aI50
aI50
asS'trans'
p4
F0.8047941557912676
sS'ecount'
p5
I13033
sS'name'
p6
S'SNAP_GR_1000'
p7
sS't_m'
p8
I46
sS'v_nonad_g'
p9
(lp10
I37
aI111
aI217
aI145
aI405
aI124
aI305
aI418
aI363
aI468
aI389
aI182
aI760
aI380
aI154
aI289
aI168
aI288
aI309
aI146
aI274
aI728
aI518
aI657
aI171
aI844
aI801
aI394
aI553
aI378
aI417
aI780
aI641
aI563
aI515
aI256
aI187
aI599
aI939
aI983
aI911
aI927
aI547
aI681
aI782
aI642
aI648
aI947
aI846
aI707
asS'pedge'
p11
F0.2
sS'r_ad'
p12
(lp13
F671.0
aF637.0
aF683.0
aF688.0
aF660.0
aF683.0
aF679.0
aF705.0
aF715.0
aF664.0
aF693.0
aF649.0
aF650.0
aF711.0
aF671.0
aF685.0
aF684.0
aF680.0
aF641.0
aF674.0
aF663.0
aF677.0
aF640.0
aF668.0
aF678.0
aF692.0
aF686.0
aF663.0
aF683.0
aF687.0
aF688.0
aF662.0
aF650.0
aF682.0
aF684.0
aF676.0
aF690.0
aF675.0
aF684.0
aF656.0
aF686.0
aF641.0
aF658.0
aF694.0
aF664.0
aF664.0
aF707.0
aF674.0
aF681.0
aF623.0
aF662.0
aF699.0
aF684.0
aF659.0
aF696.0
aF675.0
aF645.0
aF666.0
aF702.0
aF689.0
aF692.0
aF700.0
aF670.0
aF658.0
aF661.0
aF709.0
aF677.0
aF699.0
aF651.0
aF654.0
aF661.0
aF685.0
aF716.0
aF677.0
aF640.0
aF688.0
aF666.0
aF667.0
aF702.0
aF715.0
aF648.0
aF686.0
aF685.0
aF663.0
aF680.0
aF640.0
aF683.0
aF674.0
aF662.0
aF680.0
aF690.0
aF661.0
aF667.0
aF669.0
aF677.0
aF671.0
aF666.0
aF640.0
aF682.0
aF710.0
asS'v_nonad_rg'
p14
(lp15
I4
aI88
aI284
aI407
aI126
aI194
aI475
aI480
aI332
aI413
aI418
aI380
aI340
aI776
aI248
aI657
aI515
aI160
aI758
aI473
aI694
aI274
aI591
aI545
aI525
aI977
aI289
aI653
aI541
aI256
aI801
aI973
aI642
aI780
aI419
aI781
aI685
aI689
aI722
aI951
aI716
aI666
aI933
aI641
aI611
aI855
aI844
aI500
aI929
aI564
asS'nsim_ad'
p16
I1000
sS'git'
p17
S'49779d6'
p18
sS'kratio'
p19
I20
sS'r_nonad_g'
p20
(lp21
F593.0
aF597.0
aF633.0
aF643.0
aF618.0
aF655.0
aF599.0
aF626.0
aF690.0
aF624.0
aF648.0
aF628.0
aF602.0
aF667.0
aF605.0
aF635.0
aF636.0
aF645.0
aF617.0
aF626.0
aF635.0
aF626.0
aF614.0
aF633.0
aF614.0
aF629.0
aF620.0
aF611.0
aF644.0
aF632.0
aF623.0
aF643.0
aF601.0
aF656.0
aF646.0
aF606.0
aF653.0
aF655.0
aF642.0
aF616.0
aF624.0
aF596.0
aF598.0
aF645.0
aF584.0
aF629.0
aF650.0
aF653.0
aF604.0
aF594.0
aF600.0
aF665.0
aF625.0
aF629.0
aF651.0
aF639.0
aF607.0
aF622.0
aF669.0
aF616.0
aF665.0
aF667.0
aF638.0
aF620.0
aF597.0
aF685.0
aF627.0
aF642.0
aF597.0
aF625.0
aF622.0
aF645.0
aF662.0
aF627.0
aF596.0
aF636.0
aF636.0
aF629.0
aF664.0
aF663.0
aF592.0
aF628.0
aF655.0
aF626.0
aF636.0
aF609.0
aF622.0
aF633.0
aF624.0
aF631.0
aF602.0
aF615.0
aF644.0
aF616.0
aF651.0
aF625.0
aF628.0
aF584.0
aF631.0
aF654.0
asS'nsim_nonad'
p22
I10000
sS't_h'
p23
I0
sS't_s'
p24
I29
sS'r_nonad_rg'
p25
(lp26
F575.0
aF599.0
aF649.0
aF617.0
aF621.0
aF648.0
aF619.0
aF607.0
aF664.0
aF605.0
aF637.0
aF607.0
aF595.0
aF661.0
aF615.0
aF613.0
aF629.0
aF636.0
aF617.0
aF629.0
aF631.0
aF623.0
aF627.0
aF640.0
aF614.0
aF623.0
aF639.0
aF615.0
aF639.0
aF636.0
aF634.0
aF638.0
aF599.0
aF646.0
aF635.0
aF637.0
aF656.0
aF643.0
aF652.0
aF618.0
aF626.0
aF614.0
aF594.0
aF650.0
aF617.0
aF650.0
aF652.0
aF606.0
aF592.0
aF566.0
aF599.0
aF677.0
aF636.0
aF619.0
aF640.0
aF637.0
aF621.0
aF639.0
aF662.0
aF629.0
aF676.0
aF653.0
aF631.0
aF608.0
aF589.0
aF659.0
aF643.0
aF627.0
aF595.0
aF619.0
aF613.0
aF633.0
aF669.0
aF614.0
aF617.0
aF624.0
aF637.0
aF638.0
aF651.0
aF667.0
aF555.0
aF597.0
aF631.0
aF638.0
aF639.0
aF613.0
aF645.0
aF642.0
aF605.0
aF634.0
aF621.0
aF580.0
aF642.0
aF625.0
aF650.0
aF612.0
aF593.0
aF594.0
aF613.0
aF644.0
asS'workers'
p27
I7
sS'gamma'
p28
F1.0
sS'vcount'
p29
I1000
s.