(dp0
S'niter'
p1
I100
sS'v_ad'
p2
(lp3
I32
aI32
aI29
aI30
aI49
aI37
aI35
aI33
aI35
aI32
aI35
aI37
aI32
aI27
aI34
aI36
aI36
aI29
aI36
aI26
aI32
aI34
aI34
aI27
aI26
aI26
aI30
aI31
aI25
aI38
aI35
aI35
aI26
aI32
aI33
aI34
aI33
aI33
aI32
aI29
aI32
aI32
aI37
aI26
aI33
aI34
aI30
aI36
aI29
aI32
aI36
aI29
aI27
aI30
aI30
aI31
aI23
aI32
aI42
aI34
aI31
aI35
aI33
aI37
aI28
aI32
aI42
aI30
aI34
aI34
aI28
aI27
aI32
aI34
aI35
aI30
aI32
aI24
aI33
aI31
aI29
aI47
aI27
aI29
aI31
aI33
aI19
aI33
aI36
aI28
aI34
aI31
aI39
aI41
aI43
aI30
aI30
aI31
aI38
aI28
asS'trans'
p4
F0.6892001655525245
sS'ecount'
p5
I45990
sS'name'
p6
S'SNAP_FB_1000'
p7
sS't_m'
p8
I34
sS'v_nonad_g'
p9
(lp10
I145
aI7
aI396
aI431
aI342
aI644
aI293
aI208
aI284
aI682
aI382
aI162
aI507
aI655
aI214
aI152
asS'pedge'
p11
F0.1
sS'r_ad'
p12
(lp13
F577.0
aF586.0
aF608.0
aF577.0
aF512.0
aF562.0
aF589.0
aF572.0
aF565.0
aF582.0
aF567.0
aF583.0
aF595.0
aF606.0
aF578.0
aF562.0
aF575.0
aF603.0
aF586.0
aF615.0
aF611.0
aF580.0
aF585.0
aF609.0
aF615.0
aF618.0
aF587.0
aF584.0
aF620.0
aF555.0
aF569.0
aF568.0
aF612.0
aF588.0
aF587.0
aF572.0
aF583.0
aF576.0
aF581.0
aF598.0
aF579.0
aF595.0
aF559.0
aF626.0
aF582.0
aF582.0
aF581.0
aF576.0
aF595.0
aF592.0
aF566.0
aF599.0
aF624.0
aF611.0
aF588.0
aF589.0
aF628.0
aF585.0
aF549.0
aF588.0
aF589.0
aF594.0
aF586.0
aF551.0
aF601.0
aF586.0
aF550.0
aF592.0
aF576.0
aF597.0
aF620.0
aF591.0
aF610.0
aF585.0
aF573.0
aF591.0
aF603.0
aF630.0
aF592.0
aF591.0
aF600.0
aF512.0
aF612.0
aF617.0
aF598.0
aF598.0
aF652.0
aF577.0
aF583.0
aF607.0
aF588.0
aF595.0
aF558.0
aF541.0
aF538.0
aF602.0
aF592.0
aF593.0
aF550.0
aF605.0
asS'v_nonad_rg'
p14
(lp15
I77
aI288
aI5
aI293
aI667
aI878
aI902
aI306
aI80
aI159
aI838
aI494
aI635
aI363
aI691
aI658
aI806
aI396
aI431
aI355
aI98
aI51
aI760
aI342
aI145
aI66
aI916
aI579
aI655
aI208
aI7
aI382
asS'nsim_ad'
p16
I1000
sS'git'
p17
S'bf3390d'
p18
sS'kratio'
p19
I10
sS'r_nonad_g'
p20
(lp21
F611.0
aF643.0
aF674.0
aF592.0
aF593.0
aF600.0
aF646.0
aF617.0
aF623.0
aF596.0
aF649.0
aF660.0
aF664.0
aF643.0
aF594.0
aF652.0
aF647.0
aF669.0
aF646.0
aF600.0
aF656.0
aF676.0
aF612.0
aF623.0
aF641.0
aF625.0
aF626.0
aF593.0
aF617.0
aF617.0
aF605.0
aF611.0
aF649.0
aF618.0
aF617.0
aF649.0
aF658.0
aF631.0
aF593.0
aF604.0
aF624.0
aF667.0
aF572.0
aF664.0
aF599.0
aF629.0
aF610.0
aF620.0
aF624.0
aF635.0
aF621.0
aF638.0
aF661.0
aF640.0
aF617.0
aF615.0
aF644.0
aF587.0
aF631.0
aF638.0
aF605.0
aF637.0
aF642.0
aF609.0
aF646.0
aF592.0
aF609.0
aF657.0
aF658.0
aF626.0
aF642.0
aF606.0
aF653.0
aF624.0
aF638.0
aF604.0
aF638.0
aF635.0
aF617.0
aF623.0
aF638.0
aF604.0
aF626.0
aF653.0
aF635.0
aF631.0
aF654.0
aF613.0
aF641.0
aF630.0
aF608.0
aF644.0
aF591.0
aF634.0
aF640.0
aF640.0
aF628.0
aF606.0
aF628.0
aF631.0
asS'nsim_nonad'
p22
I10000
sS't_h'
p23
I1
sS't_s'
p24
I32
sS'r_nonad_rg'
p25
(lp26
F553.0
aF581.0
aF581.0
aF562.0
aF549.0
aF563.0
aF571.0
aF530.0
aF557.0
aF568.0
aF573.0
aF600.0
aF593.0
aF588.0
aF563.0
aF572.0
aF576.0
aF585.0
aF589.0
aF586.0
aF611.0
aF588.0
aF555.0
aF569.0
aF563.0
aF577.0
aF561.0
aF573.0
aF565.0
aF559.0
aF522.0
aF555.0
aF596.0
aF575.0
aF567.0
aF594.0
aF568.0
aF583.0
aF556.0
aF558.0
aF563.0
aF585.0
aF559.0
aF589.0
aF537.0
aF565.0
aF550.0
aF598.0
aF586.0
aF569.0
aF563.0
aF566.0
aF593.0
aF593.0
aF559.0
aF573.0
aF597.0
aF540.0
aF550.0
aF564.0
aF562.0
aF574.0
aF578.0
aF526.0
aF577.0
aF574.0
aF575.0
aF585.0
aF590.0
aF546.0
aF583.0
aF562.0
aF591.0
aF576.0
aF596.0
aF572.0
aF580.0
aF595.0
aF553.0
aF580.0
aF578.0
aF566.0
aF595.0
aF566.0
aF565.0
aF608.0
aF582.0
aF591.0
aF569.0
aF605.0
aF572.0
aF597.0
aF574.0
aF567.0
aF589.0
aF589.0
aF580.0
aF571.0
aF588.0
aF551.0
asS'workers'
p27
I7
sS'gamma'
p28
F5.0
sS'vcount'
p29
I1000
s.