(dp0
S'niter'
p1
I100
sS'v_ad'
p2
(lp3
I19
aI18
aI20
aI20
aI17
aI20
aI19
aI17
aI22
aI20
aI14
aI14
aI15
aI18
aI20
aI18
aI21
aI23
aI18
aI20
aI13
aI21
aI19
aI23
aI21
aI19
aI16
aI18
aI16
aI22
aI23
aI19
aI16
aI13
aI21
aI21
aI20
aI16
aI20
aI22
aI17
aI16
aI20
aI23
aI22
aI22
aI19
aI20
aI22
aI14
aI16
aI18
aI19
aI18
aI19
aI16
aI17
aI17
aI19
aI19
aI16
aI20
aI16
aI20
aI16
aI18
aI23
aI19
aI12
aI21
aI22
aI14
aI21
aI13
aI22
aI22
aI22
aI18
aI16
aI18
aI15
aI18
aI20
aI18
aI21
aI18
aI18
aI17
aI18
aI17
aI19
aI15
aI24
aI17
aI22
aI12
aI21
aI19
aI21
aI19
asS'trans'
p4
F0.6892001655525245
sS'ecount'
p5
I45990
sS'name'
p6
S'SNAP_FB_1000'
p7
sS't_m'
p8
I56
sS'v_nonad_g'
p9
(lp10
I145
aI431
aI293
aI644
aI396
aI342
aI978
aI768
asS'pedge'
p11
F0.4
sS'r_ad'
p12
(lp13
F838.0
aF850.0
aF829.0
aF833.0
aF840.0
aF840.0
aF843.0
aF852.0
aF819.0
aF826.0
aF854.0
aF854.0
aF845.0
aF847.0
aF825.0
aF843.0
aF813.0
aF810.0
aF834.0
aF830.0
aF859.0
aF826.0
aF851.0
aF816.0
aF834.0
aF825.0
aF838.0
aF827.0
aF842.0
aF827.0
aF813.0
aF834.0
aF845.0
aF859.0
aF833.0
aF834.0
aF836.0
aF844.0
aF832.0
aF818.0
aF859.0
aF843.0
aF845.0
aF816.0
aF820.0
aF816.0
aF833.0
aF829.0
aF825.0
aF844.0
aF852.0
aF840.0
aF832.0
aF841.0
aF837.0
aF850.0
aF854.0
aF840.0
aF840.0
aF839.0
aF854.0
aF833.0
aF862.0
aF823.0
aF851.0
aF852.0
aF800.0
aF858.0
aF871.0
aF831.0
aF819.0
aF856.0
aF829.0
aF858.0
aF821.0
aF822.0
aF826.0
aF843.0
aF854.0
aF830.0
aF850.0
aF852.0
aF839.0
aF833.0
aF824.0
aF836.0
aF844.0
aF834.0
aF836.0
aF858.0
aF842.0
aF848.0
aF816.0
aF847.0
aF830.0
aF861.0
aF836.0
aF836.0
aF836.0
aF842.0
asS'v_nonad_rg'
p14
(lp15
I517
aI363
aI735
aI479
aI53
aI579
aI994
aI305
aI342
aI425
aI682
aI886
aI712
aI152
aI734
aI7
aI431
asS'nsim_ad'
p16
I1000
sS'git'
p17
S'bf3390d'
p18
sS'kratio'
p19
I10
sS'r_nonad_g'
p20
(lp21
F879.0
aF894.0
aF902.0
aF880.0
aF894.0
aF885.0
aF897.0
aF895.0
aF884.0
aF885.0
aF889.0
aF895.0
aF900.0
aF886.0
aF895.0
aF897.0
aF889.0
aF884.0
aF891.0
aF887.0
aF911.0
aF878.0
aF891.0
aF881.0
aF895.0
aF885.0
aF880.0
aF882.0
aF875.0
aF889.0
aF890.0
aF902.0
aF904.0
aF886.0
aF906.0
aF900.0
aF901.0
aF863.0
aF868.0
aF885.0
aF903.0
aF888.0
aF882.0
aF886.0
aF875.0
aF886.0
aF887.0
aF884.0
aF893.0
aF895.0
aF904.0
aF889.0
aF892.0
aF893.0
aF896.0
aF897.0
aF895.0
aF897.0
aF891.0
aF890.0
aF904.0
aF888.0
aF905.0
aF887.0
aF881.0
aF882.0
aF882.0
aF901.0
aF905.0
aF900.0
aF861.0
aF889.0
aF899.0
aF902.0
aF881.0
aF891.0
aF889.0
aF900.0
aF901.0
aF882.0
aF897.0
aF897.0
aF880.0
aF893.0
aF896.0
aF886.0
aF883.0
aF888.0
aF891.0
aF892.0
aF898.0
aF897.0
aF889.0
aF893.0
aF897.0
aF890.0
aF891.0
aF892.0
aF885.0
aF890.0
asS'nsim_nonad'
p22
I10000
sS't_h'
p23
I0
sS't_s'
p24
I51
sS'r_nonad_rg'
p25
(lp26
F852.0
aF835.0
aF838.0
aF828.0
aF834.0
aF842.0
aF852.0
aF843.0
aF844.0
aF834.0
aF826.0
aF845.0
aF840.0
aF837.0
aF831.0
aF834.0
aF831.0
aF829.0
aF842.0
aF835.0
aF842.0
aF840.0
aF841.0
aF848.0
aF849.0
aF834.0
aF825.0
aF826.0
aF839.0
aF840.0
aF854.0
aF846.0
aF846.0
aF825.0
aF843.0
aF837.0
aF843.0
aF815.0
aF836.0
aF827.0
aF847.0
aF847.0
aF832.0
aF828.0
aF830.0
aF839.0
aF834.0
aF837.0
aF851.0
aF847.0
aF832.0
aF849.0
aF842.0
aF845.0
aF829.0
aF841.0
aF830.0
aF841.0
aF852.0
aF836.0
aF842.0
aF838.0
aF853.0
aF839.0
aF840.0
aF840.0
aF830.0
aF844.0
aF837.0
aF855.0
aF836.0
aF836.0
aF850.0
aF845.0
aF832.0
aF841.0
aF847.0
aF840.0
aF849.0
aF842.0
aF854.0
aF834.0
aF847.0
aF841.0
aF830.0
aF840.0
aF841.0
aF828.0
aF837.0
aF849.0
aF845.0
aF841.0
aF844.0
aF850.0
aF850.0
aF841.0
aF820.0
aF834.0
aF850.0
aF847.0
asS'workers'
p27
I7
sS'gamma'
p28
F5.0
sS'vcount'
p29
I1000
s.