(dp0
S'niter'
p1
I100
sS'v_ad'
p2
(lp3
I3
aI4
aI3
aI2
aI3
aI3
aI3
aI1
aI4
aI4
aI3
aI4
aI3
aI3
aI3
aI3
aI2
aI4
aI3
aI3
aI3
aI4
aI2
aI2
aI2
aI2
aI3
aI4
aI4
aI4
aI3
aI3
aI4
aI2
aI3
aI3
aI4
aI3
aI3
aI4
aI3
aI4
aI3
aI3
aI2
aI3
aI3
aI3
aI4
aI3
aI3
aI2
aI2
aI3
aI3
aI3
aI2
aI3
aI2
aI4
aI4
aI5
aI3
aI3
aI5
aI3
aI2
aI3
aI3
aI2
aI3
aI2
aI4
aI2
aI4
aI2
aI2
aI5
aI3
aI4
aI2
aI3
aI3
aI3
aI4
aI4
aI3
aI3
aI3
aI2
aI4
aI3
aI3
aI3
aI4
aI2
aI3
aI4
aI3
aI3
asS'trans'
p4
F0.6892001655525245
sS'ecount'
p5
I45990
sS'name'
p6
S'SNAP_FB_1000'
p7
sS't_m'
p8
I18
sS'v_nonad_g'
p9
(lp10
I76
aI7
aI5
asS'pedge'
p11
F0.01
sS'r_ad'
p12
(lp13
F2.0
aF2.0
aF6.0
aF4.0
aF-3.0
aF5.0
aF-5.0
aF12.0
aF-8.0
aF1.0
aF-5.0
aF2.0
aF-2.0
aF1.0
aF-6.0
aF-2.0
aF1.0
aF-9.0
aF11.0
aF9.0
aF-9.0
aF-10.0
aF7.0
aF11.0
aF6.0
aF0.0
aF-7.0
aF-1.0
aF-9.0
aF7.0
aF-3.0
aF-9.0
aF-5.0
aF2.0
aF4.0
aF0.0
aF-8.0
aF-2.0
aF10.0
aF-3.0
aF1.0
aF-3.0
aF-6.0
aF-2.0
aF6.0
aF-2.0
aF3.0
aF-9.0
aF3.0
aF5.0
aF2.0
aF5.0
aF3.0
aF-2.0
aF3.0
aF5.0
aF-2.0
aF1.0
aF0.0
aF-11.0
aF-4.0
aF-7.0
aF6.0
aF-2.0
aF7.0
aF-7.0
aF5.0
aF0.0
aF4.0
aF0.0
aF6.0
aF4.0
aF5.0
aF8.0
aF0.0
aF2.0
aF1.0
aF-16.0
aF15.0
aF-5.0
aF0.0
aF-10.0
aF0.0
aF0.0
aF-5.0
aF-5.0
aF-2.0
aF3.0
aF0.0
aF10.0
aF-9.0
aF-2.0
aF6.0
aF-1.0
aF4.0
aF3.0
aF1.0
aF-5.0
aF-3.0
aF-7.0
asS'v_nonad_rg'
p14
(lp15
I5
aI76
aI7
asS'nsim_ad'
p16
I1000
sS'git'
p17
S'bf3390d'
p18
sS'kratio'
p19
I10
sS'r_nonad_g'
p20
(lp21
F4.0
aF2.0
aF5.0
aF0.0
aF-1.0
aF8.0
aF-7.0
aF-3.0
aF-5.0
aF3.0
aF10.0
aF-6.0
aF-1.0
aF-2.0
aF-9.0
aF-3.0
aF6.0
aF-5.0
aF14.0
aF-2.0
aF-5.0
aF-7.0
aF-1.0
aF4.0
aF-3.0
aF3.0
aF-5.0
aF-2.0
aF9.0
aF6.0
aF-1.0
aF-2.0
aF10.0
aF2.0
aF3.0
aF1.0
aF-4.0
aF-3.0
aF4.0
aF-1.0
aF5.0
aF-2.0
aF-6.0
aF-2.0
aF9.0
aF5.0
aF11.0
aF-8.0
aF6.0
aF1.0
aF-5.0
aF-5.0
aF-8.0
aF-8.0
aF13.0
aF1.0
aF0.0
aF3.0
aF-10.0
aF-1.0
aF-2.0
aF-3.0
aF6.0
aF-6.0
aF10.0
aF-4.0
aF-3.0
aF-4.0
aF-2.0
aF-7.0
aF12.0
aF-1.0
aF5.0
aF-6.0
aF1.0
aF-3.0
aF-5.0
aF5.0
aF11.0
aF2.0
aF-7.0
aF-10.0
aF0.0
aF-5.0
aF-4.0
aF-1.0
aF-4.0
aF4.0
aF3.0
aF11.0
aF-5.0
aF0.0
aF-8.0
aF2.0
aF0.0
aF7.0
aF-5.0
aF-2.0
aF8.0
aF6.0
asS'nsim_nonad'
p22
I10000
sS't_h'
p23
I1
sS't_s'
p24
I21
sS'r_nonad_rg'
p25
(lp26
F4.0
aF2.0
aF5.0
aF0.0
aF-1.0
aF8.0
aF-7.0
aF-3.0
aF-5.0
aF3.0
aF10.0
aF-6.0
aF-1.0
aF-2.0
aF-9.0
aF-3.0
aF6.0
aF-5.0
aF14.0
aF-2.0
aF-5.0
aF-7.0
aF-1.0
aF4.0
aF-3.0
aF3.0
aF-5.0
aF-2.0
aF9.0
aF6.0
aF-1.0
aF-2.0
aF10.0
aF2.0
aF3.0
aF1.0
aF-4.0
aF-3.0
aF4.0
aF-1.0
aF5.0
aF-2.0
aF-6.0
aF-2.0
aF9.0
aF5.0
aF11.0
aF-8.0
aF6.0
aF1.0
aF-5.0
aF-5.0
aF-8.0
aF-8.0
aF13.0
aF1.0
aF0.0
aF3.0
aF-10.0
aF-1.0
aF-2.0
aF-3.0
aF6.0
aF-6.0
aF10.0
aF-4.0
aF-3.0
aF-4.0
aF-2.0
aF-7.0
aF12.0
aF-1.0
aF5.0
aF-6.0
aF1.0
aF-3.0
aF-5.0
aF5.0
aF11.0
aF2.0
aF-7.0
aF-10.0
aF0.0
aF-5.0
aF-4.0
aF-1.0
aF-4.0
aF4.0
aF3.0
aF11.0
aF-5.0
aF0.0
aF-8.0
aF2.0
aF0.0
aF7.0
aF-5.0
aF-2.0
aF8.0
aF6.0
asS'workers'
p27
I7
sS'gamma'
p28
F5.0
sS'vcount'
p29
I1000
s.