(dp0
S'niter'
p1
I100
sS'v_ad'
p2
(lp3
I17
aI15
aI16
aI19
aI16
aI20
aI23
aI19
aI19
aI20
aI19
aI18
aI19
aI23
aI21
aI23
aI24
aI20
aI15
aI20
aI16
aI21
aI18
aI23
aI16
aI16
aI17
aI18
aI18
aI22
aI16
aI21
aI21
aI16
aI19
aI16
aI18
aI17
aI19
aI15
aI18
aI18
aI19
aI14
aI20
aI28
aI18
aI19
aI18
aI18
aI20
aI17
aI16
aI17
aI16
aI17
aI18
aI18
aI17
aI19
aI16
aI16
aI19
aI19
aI18
aI17
aI19
aI18
aI21
aI16
aI21
aI21
aI18
aI18
aI18
aI21
aI19
aI20
aI19
aI22
aI26
aI18
aI19
aI22
aI12
aI22
aI18
aI24
aI15
aI22
aI19
aI19
aI21
aI16
aI16
aI18
aI20
aI16
aI23
aI21
asS'trans'
p4
F0.6892001655525245
sS'ecount'
p5
I45990
sS'name'
p6
S'SNAP_FB_1000'
p7
sS't_m'
p8
I13
sS'v_nonad_g'
p9
(lp10
I145
aI431
aI293
aI916
aI396
aI342
aI978
aI768
asS'pedge'
p11
F0.5
sS'r_ad'
p12
(lp13
F857.0
aF876.0
aF853.0
aF849.0
aF857.0
aF853.0
aF838.0
aF846.0
aF860.0
aF852.0
aF855.0
aF858.0
aF846.0
aF843.0
aF851.0
aF840.0
aF819.0
aF846.0
aF867.0
aF851.0
aF866.0
aF842.0
aF859.0
aF829.0
aF867.0
aF859.0
aF877.0
aF860.0
aF874.0
aF848.0
aF869.0
aF851.0
aF840.0
aF860.0
aF864.0
aF869.0
aF853.0
aF857.0
aF863.0
aF868.0
aF859.0
aF853.0
aF856.0
aF878.0
aF836.0
aF810.0
aF856.0
aF860.0
aF864.0
aF854.0
aF847.0
aF863.0
aF861.0
aF844.0
aF864.0
aF862.0
aF865.0
aF864.0
aF872.0
aF859.0
aF854.0
aF867.0
aF853.0
aF861.0
aF856.0
aF858.0
aF858.0
aF857.0
aF837.0
aF858.0
aF843.0
aF857.0
aF856.0
aF855.0
aF849.0
aF855.0
aF853.0
aF851.0
aF844.0
aF837.0
aF824.0
aF847.0
aF846.0
aF839.0
aF867.0
aF845.0
aF861.0
aF824.0
aF853.0
aF838.0
aF857.0
aF857.0
aF845.0
aF861.0
aF871.0
aF865.0
aF846.0
aF859.0
aF832.0
aF848.0
asS'v_nonad_rg'
p14
(lp15
I517
aI904
aI284
aI479
aI760
aI713
aI994
aI787
aI425
aI53
aI76
aI886
aI145
aI293
aI916
aI431
asS'nsim_ad'
p16
I1000
sS'git'
p17
S'bf3390d'
p18
sS'kratio'
p19
I10
sS'r_nonad_g'
p20
(lp21
F910.0
aF918.0
aF906.0
aF895.0
aF907.0
aF903.0
aF900.0
aF901.0
aF912.0
aF907.0
aF900.0
aF909.0
aF898.0
aF917.0
aF908.0
aF901.0
aF902.0
aF907.0
aF911.0
aF902.0
aF909.0
aF900.0
aF916.0
aF914.0
aF901.0
aF910.0
aF925.0
aF904.0
aF920.0
aF891.0
aF908.0
aF912.0
aF911.0
aF900.0
aF911.0
aF912.0
aF913.0
aF903.0
aF922.0
aF907.0
aF909.0
aF893.0
aF915.0
aF913.0
aF905.0
aF896.0
aF918.0
aF920.0
aF911.0
aF900.0
aF882.0
aF901.0
aF907.0
aF910.0
aF905.0
aF911.0
aF922.0
aF909.0
aF912.0
aF916.0
aF901.0
aF895.0
aF907.0
aF916.0
aF916.0
aF904.0
aF909.0
aF912.0
aF894.0
aF897.0
aF911.0
aF907.0
aF903.0
aF905.0
aF908.0
aF914.0
aF916.0
aF913.0
aF905.0
aF913.0
aF893.0
aF912.0
aF905.0
aF921.0
aF908.0
aF905.0
aF910.0
aF881.0
aF908.0
aF892.0
aF900.0
aF918.0
aF913.0
aF903.0
aF920.0
aF909.0
aF899.0
aF918.0
aF903.0
aF911.0
asS'nsim_nonad'
p22
I10000
sS't_h'
p23
I1
sS't_s'
p24
I24
sS'r_nonad_rg'
p25
(lp26
F860.0
aF863.0
aF865.0
aF861.0
aF868.0
aF856.0
aF853.0
aF856.0
aF864.0
aF864.0
aF861.0
aF857.0
aF848.0
aF859.0
aF859.0
aF849.0
aF870.0
aF859.0
aF855.0
aF854.0
aF864.0
aF865.0
aF862.0
aF861.0
aF847.0
aF871.0
aF870.0
aF853.0
aF863.0
aF856.0
aF859.0
aF870.0
aF870.0
aF864.0
aF865.0
aF875.0
aF868.0
aF854.0
aF861.0
aF868.0
aF856.0
aF862.0
aF870.0
aF860.0
aF863.0
aF851.0
aF873.0
aF868.0
aF861.0
aF863.0
aF853.0
aF849.0
aF852.0
aF860.0
aF854.0
aF853.0
aF874.0
aF860.0
aF868.0
aF866.0
aF858.0
aF855.0
aF859.0
aF859.0
aF872.0
aF862.0
aF859.0
aF866.0
aF865.0
aF863.0
aF862.0
aF856.0
aF849.0
aF866.0
aF864.0
aF864.0
aF866.0
aF871.0
aF858.0
aF869.0
aF864.0
aF865.0
aF865.0
aF874.0
aF865.0
aF856.0
aF865.0
aF840.0
aF862.0
aF856.0
aF865.0
aF867.0
aF858.0
aF847.0
aF869.0
aF866.0
aF855.0
aF864.0
aF860.0
aF858.0
asS'workers'
p27
I7
sS'gamma'
p28
F5.0
sS'vcount'
p29
I1000
s.