(dp0
S'niter'
p1
I100
sS'v_ad'
p2
(lp3
I21
aI21
aI20
aI23
aI19
aI17
aI21
aI20
aI23
aI30
aI18
aI16
aI22
aI16
aI20
aI22
aI18
aI20
aI18
aI22
aI18
aI19
aI21
aI26
aI18
aI25
aI17
aI21
aI21
aI20
aI17
aI21
aI19
aI17
aI19
aI19
aI20
aI19
aI22
aI21
aI13
aI18
aI18
aI20
aI14
aI19
aI18
aI17
aI21
aI23
aI17
aI22
aI15
aI19
aI26
aI16
aI21
aI23
aI20
aI20
aI18
aI21
aI22
aI17
aI17
aI24
aI24
aI22
aI24
aI20
aI24
aI22
aI19
aI19
aI22
aI16
aI27
aI24
aI17
aI19
aI23
aI19
aI19
aI22
aI19
aI20
aI17
aI21
aI23
aI25
aI21
aI18
aI25
aI22
aI19
aI22
aI16
aI23
aI18
aI12
asS'trans'
p4
F0.6892001655525245
sS'ecount'
p5
I45990
sS'name'
p6
S'SNAP_FB_1000'
p7
sS't_m'
p8
I54
sS'v_nonad_g'
p9
(lp10
I145
aI431
aI293
aI644
aI396
aI342
aI978
aI768
asS'pedge'
p11
F0.3
sS'r_ad'
p12
(lp13
F795.0
aF811.0
aF813.0
aF792.0
aF821.0
aF821.0
aF815.0
aF808.0
aF796.0
aF756.0
aF831.0
aF833.0
aF799.0
aF827.0
aF808.0
aF793.0
aF839.0
aF811.0
aF810.0
aF794.0
aF825.0
aF816.0
aF793.0
aF773.0
aF812.0
aF792.0
aF822.0
aF804.0
aF810.0
aF813.0
aF832.0
aF820.0
aF820.0
aF828.0
aF819.0
aF790.0
aF817.0
aF799.0
aF799.0
aF810.0
aF845.0
aF817.0
aF816.0
aF810.0
aF848.0
aF806.0
aF799.0
aF823.0
aF804.0
aF784.0
aF821.0
aF786.0
aF815.0
aF814.0
aF792.0
aF821.0
aF799.0
aF805.0
aF818.0
aF809.0
aF819.0
aF804.0
aF795.0
aF828.0
aF828.0
aF780.0
aF784.0
aF794.0
aF787.0
aF815.0
aF800.0
aF790.0
aF817.0
aF805.0
aF811.0
aF820.0
aF771.0
aF789.0
aF816.0
aF809.0
aF786.0
aF810.0
aF807.0
aF813.0
aF822.0
aF802.0
aF813.0
aF807.0
aF784.0
aF799.0
aF794.0
aF813.0
aF787.0
aF803.0
aF815.0
aF806.0
aF838.0
aF801.0
aF812.0
aF837.0
asS'v_nonad_rg'
p14
(lp15
I80
aI674
aI916
aI214
aI483
aI340
aI902
aI579
aI98
aI633
aI886
aI712
aI161
aI787
aI644
aI776
aI760
aI145
aI293
aI396
asS'nsim_ad'
p16
I1000
sS'git'
p17
S'bf3390d'
p18
sS'kratio'
p19
I10
sS'r_nonad_g'
p20
(lp21
F856.0
aF859.0
aF863.0
aF855.0
aF858.0
aF854.0
aF863.0
aF845.0
aF864.0
aF822.0
aF864.0
aF869.0
aF867.0
aF865.0
aF866.0
aF852.0
aF869.0
aF871.0
aF851.0
aF867.0
aF871.0
aF860.0
aF840.0
aF839.0
aF867.0
aF845.0
aF868.0
aF863.0
aF848.0
aF856.0
aF854.0
aF874.0
aF848.0
aF871.0
aF857.0
aF860.0
aF861.0
aF841.0
aF867.0
aF834.0
aF857.0
aF871.0
aF869.0
aF867.0
aF882.0
aF868.0
aF841.0
aF861.0
aF855.0
aF847.0
aF867.0
aF839.0
aF850.0
aF867.0
aF849.0
aF868.0
aF863.0
aF869.0
aF877.0
aF839.0
aF853.0
aF851.0
aF829.0
aF867.0
aF848.0
aF867.0
aF848.0
aF868.0
aF864.0
aF866.0
aF850.0
aF855.0
aF837.0
aF847.0
aF845.0
aF865.0
aF861.0
aF866.0
aF855.0
aF847.0
aF879.0
aF854.0
aF854.0
aF872.0
aF858.0
aF869.0
aF873.0
aF856.0
aF844.0
aF860.0
aF843.0
aF861.0
aF847.0
aF855.0
aF872.0
aF848.0
aF848.0
aF862.0
aF867.0
aF875.0
asS'nsim_nonad'
p22
I10000
sS't_h'
p23
I0
sS't_s'
p24
I37
sS'r_nonad_rg'
p25
(lp26
F803.0
aF789.0
aF816.0
aF807.0
aF806.0
aF811.0
aF833.0
aF804.0
aF815.0
aF798.0
aF812.0
aF819.0
aF802.0
aF818.0
aF803.0
aF806.0
aF823.0
aF813.0
aF811.0
aF820.0
aF807.0
aF806.0
aF806.0
aF805.0
aF810.0
aF812.0
aF806.0
aF819.0
aF803.0
aF809.0
aF820.0
aF834.0
aF811.0
aF805.0
aF819.0
aF810.0
aF817.0
aF775.0
aF819.0
aF816.0
aF825.0
aF828.0
aF819.0
aF807.0
aF833.0
aF827.0
aF806.0
aF813.0
aF797.0
aF803.0
aF802.0
aF801.0
aF805.0
aF820.0
aF808.0
aF819.0
aF805.0
aF816.0
aF818.0
aF798.0
aF808.0
aF814.0
aF802.0
aF817.0
aF803.0
aF820.0
aF808.0
aF809.0
aF799.0
aF808.0
aF811.0
aF819.0
aF818.0
aF801.0
aF796.0
aF816.0
aF814.0
aF814.0
aF802.0
aF808.0
aF809.0
aF811.0
aF804.0
aF825.0
aF807.0
aF821.0
aF806.0
aF807.0
aF799.0
aF807.0
aF813.0
aF805.0
aF803.0
aF822.0
aF812.0
aF818.0
aF801.0
aF820.0
aF808.0
aF815.0
asS'workers'
p27
I7
sS'gamma'
p28
F5.0
sS'vcount'
p29
I1000
s.