(dp0
S'niter'
p1
I100
sS'v_ad'
p2
(lp3
I333
aI333
aI333
aI333
aI333
aI333
aI333
aI333
aI333
aI333
aI333
aI333
aI333
aI333
aI333
aI333
aI333
aI333
aI333
aI333
aI333
aI333
aI333
aI333
aI333
aI333
aI333
aI333
aI333
aI333
aI333
aI333
aI333
aI333
aI333
aI333
aI333
aI333
aI333
aI333
aI333
aI333
aI333
aI333
aI333
aI333
aI333
aI333
aI333
aI333
aI333
aI333
aI333
aI333
aI333
aI333
aI333
aI333
aI333
aI333
aI333
aI333
aI333
aI333
aI333
aI333
aI333
aI333
aI333
aI333
aI333
aI333
aI333
aI333
aI333
aI333
aI333
aI333
aI333
aI333
aI333
aI333
aI333
aI333
aI333
aI333
aI333
aI333
aI333
aI333
aI333
aI333
aI333
aI333
aI333
aI333
aI333
aI333
aI333
aI333
asS'trans'
p4
F0.8047941557912676
sS'ecount'
p5
I13033
sS'name'
p6
S'SNAP_GR_1000'
p7
sS't_m'
p8
I40
sS'v_nonad_g'
p9
(lp10
I0
aI3
aI8
aI5
aI12
aI4
aI2
aI23
aI6
aI79
aI49
aI1
aI51
aI104
aI10
aI75
aI65
aI110
aI9
aI67
aI93
aI74
aI127
aI7
aI66
aI98
aI172
aI136
aI11
aI62
aI145
aI152
aI106
aI149
aI219
aI40
aI53
aI151
aI115
aI129
aI13
aI82
aI184
aI103
aI54
aI177
aI81
aI185
aI21
aI120
aI202
aI138
aI167
aI41
aI305
aI57
aI368
aI174
aI333
aI239
aI144
aI119
aI163
aI130
aI259
aI183
aI224
aI15
aI189
aI257
aI143
aI153
aI306
aI424
aI55
aI319
aI168
aI299
aI431
aI253
aI88
aI474
aI171
aI418
aI266
aI173
aI140
aI220
aI17
aI213
aI384
aI285
aI162
aI243
aI413
aI434
aI349
aI242
aI58
aI229
aI179
aI142
aI380
aI109
aI391
aI478
aI154
aI450
aI279
aI197
aI48
aI212
aI383
aI783
aI469
aI147
aI422
aI708
aI157
aI187
aI332
aI182
aI389
aI128
aI505
aI59
aI313
aI312
aI403
aI428
aI150
aI298
aI20
aI85
aI231
aI254
aI293
aI466
aI497
aI617
aI289
aI801
aI350
aI210
aI340
aI339
aI297
aI226
aI300
aI217
aI365
aI283
aI146
aI797
aI563
aI344
aI528
aI131
aI479
aI141
aI402
aI318
aI347
aI160
aI399
aI292
aI436
aI657
aI511
aI518
aI499
aI660
aI52
aI680
aI640
aI689
aI274
aI395
aI533
aI101
aI544
aI541
aI442
aI209
aI271
aI421
aI951
aI337
aI419
aI444
aI608
aI668
aI353
aI192
aI398
aI248
aI204
aI309
aI417
aI582
aI586
aI178
aI491
aI382
aI502
aI311
aI393
aI324
aI735
aI685
aI432
aI741
aI235
aI506
aI599
aI327
aI521
aI454
aI335
aI315
aI588
aI377
aI388
aI394
aI230
aI345
aI286
aI203
aI695
aI406
aI550
aI412
aI500
aI369
aI336
aI926
aI256
aI802
aI647
aI14
aI644
aI338
aI63
aI656
aI526
aI821
aI950
aI105
aI686
aI439
aI459
aI833
aI390
aI449
aI477
aI727
aI816
aI706
aI558
aI860
aI749
aI929
aI448
aI489
aI688
aI955
aI215
aI707
aI751
aI844
aI211
aI933
aI272
aI376
aI536
aI482
aI658
aI702
aI832
aI560
aI556
aI628
aI606
aI545
aI304
aI539
aI437
aI883
aI634
aI666
aI296
aI703
aI715
aI571
aI884
aI901
aI661
aI503
aI331
aI716
aI910
aI976
aI978
aI972
aI812
aI156
aI581
aI604
aI940
aI745
aI757
aI722
aI864
aI739
aI938
aI876
aI789
aI858
aI880
aI998
aI732
aI890
aI989
aI513
aI765
aI839
aI409
aI834
aI966
aI322
aI823
aI759
aI381
asS'pedge'
p11
F0.01
sS'r_ad'
p12
(lp13
F55.0
aF44.0
aF40.0
aF70.0
aF41.0
aF52.0
aF52.0
aF43.0
aF50.0
aF51.0
aF50.0
aF56.0
aF55.0
aF49.0
aF52.0
aF63.0
aF65.0
aF56.0
aF60.0
aF41.0
aF51.0
aF42.0
aF58.0
aF58.0
aF44.0
aF48.0
aF50.0
aF46.0
aF63.0
aF52.0
aF49.0
aF57.0
aF55.0
aF48.0
aF52.0
aF47.0
aF55.0
aF47.0
aF54.0
aF55.0
aF57.0
aF46.0
aF41.0
aF55.0
aF44.0
aF64.0
aF52.0
aF57.0
aF47.0
aF54.0
aF53.0
aF74.0
aF54.0
aF61.0
aF55.0
aF52.0
aF48.0
aF60.0
aF53.0
aF51.0
aF60.0
aF67.0
aF59.0
aF51.0
aF64.0
aF58.0
aF57.0
aF56.0
aF62.0
aF52.0
aF63.0
aF65.0
aF49.0
aF46.0
aF45.0
aF55.0
aF64.0
aF44.0
aF54.0
aF55.0
aF54.0
aF41.0
aF49.0
aF52.0
aF63.0
aF62.0
aF49.0
aF56.0
aF49.0
aF63.0
aF54.0
aF38.0
aF43.0
aF40.0
aF63.0
aF64.0
aF42.0
aF53.0
aF59.0
aF52.0
asS'v_nonad_rg'
p14
(lp15
I52
aI85
aI140
aI205
aI452
aI134
aI272
aI100
aI44
aI137
aI6
aI96
aI84
aI67
aI325
aI456
aI408
aI37
aI53
aI216
aI264
aI49
aI461
aI193
aI410
aI480
aI3
aI263
aI151
aI82
aI51
aI164
aI153
aI180
aI10
aI206
aI281
aI257
aI324
aI303
aI191
aI217
aI314
aI20
aI250
aI374
aI15
aI335
aI311
aI112
aI81
aI169
aI179
aI60
aI174
aI74
aI195
aI598
aI105
aI265
aI41
aI207
aI4
aI13
aI35
aI136
aI344
aI284
aI144
aI33
aI331
aI262
aI69
aI159
aI365
aI43
aI111
aI427
aI248
aI783
aI0
aI1
aI391
aI444
aI368
aI295
aI253
aI83
aI71
aI110
aI61
aI185
aI90
aI26
aI201
aI68
aI98
aI165
aI54
aI451
aI497
aI528
aI260
aI450
aI168
aI395
aI747
aI258
aI513
aI75
aI940
aI199
aI119
aI66
aI182
aI916
aI632
aI386
aI209
aI64
aI442
aI866
aI413
aI108
aI127
aI554
aI249
aI409
aI538
aI150
aI162
aI946
aI921
aI475
aI318
aI402
aI73
aI2
aI670
aI545
aI238
aI186
aI290
aI689
aI183
aI194
aI496
aI486
aI138
aI329
aI380
aI333
aI328
aI319
aI625
aI509
aI247
aI864
aI477
aI244
aI765
aI655
aI79
aI252
aI231
aI130
aI801
aI840
aI746
aI351
aI562
aI163
aI285
aI431
aI378
aI720
aI11
aI892
aI467
aI229
aI403
aI735
aI479
aI646
aI729
aI922
aI218
aI564
aI166
aI173
aI507
aI522
aI491
aI644
aI618
aI161
aI779
aI211
aI219
aI343
aI731
aI523
aI177
aI857
aI445
aI420
aI636
aI23
aI294
aI981
aI25
aI423
aI844
aI549
aI620
aI271
aI669
aI221
aI305
aI672
aI884
aI813
aI764
aI227
aI382
aI339
aI336
aI575
aI539
aI648
aI489
aI925
aI640
aI595
aI499
aI347
aI574
aI871
aI662
aI800
aI381
aI688
aI526
aI546
aI566
aI959
aI591
aI330
aI239
aI837
aI187
aI826
aI246
aI472
aI535
aI603
aI782
aI12
aI787
aI955
aI996
aI995
aI230
aI638
aI766
aI716
aI920
aI287
aI548
aI99
aI462
aI404
aI309
aI293
aI135
aI254
aI350
aI129
aI915
aI666
aI899
aI675
aI867
aI518
aI299
aI832
aI387
aI577
aI842
aI384
aI873
aI979
aI261
aI317
aI928
aI245
aI405
aI734
aI622
aI725
aI390
aI604
aI717
aI488
aI212
aI986
aI131
aI494
aI709
aI645
aI715
aI478
aI310
aI624
aI762
aI512
aI741
aI835
aI692
aI170
aI858
aI777
aI398
aI447
aI315
aI671
aI490
aI896
aI900
aI793
aI289
aI677
aI911
asS'nsim_ad'
p16
I1000
sS'git'
p17
S'49779d6'
p18
sS'kratio'
p19
I3
sS'r_nonad_g'
p20
(lp21
F37.0
aF45.0
aF40.0
aF50.0
aF36.0
aF47.0
aF31.0
aF31.0
aF37.0
aF35.0
aF31.0
aF41.0
aF30.0
aF44.0
aF34.0
aF43.0
aF48.0
aF48.0
aF33.0
aF40.0
aF42.0
aF33.0
aF32.0
aF34.0
aF38.0
aF38.0
aF37.0
aF34.0
aF38.0
aF43.0
aF37.0
aF31.0
aF30.0
aF28.0
aF42.0
aF27.0
aF44.0
aF40.0
aF33.0
aF40.0
aF33.0
aF36.0
aF21.0
aF37.0
aF37.0
aF34.0
aF54.0
aF41.0
aF36.0
aF35.0
aF46.0
aF43.0
aF27.0
aF52.0
aF31.0
aF45.0
aF42.0
aF38.0
aF48.0
aF39.0
aF44.0
aF46.0
aF46.0
aF41.0
aF46.0
aF42.0
aF47.0
aF35.0
aF42.0
aF30.0
aF38.0
aF46.0
aF35.0
aF43.0
aF42.0
aF38.0
aF41.0
aF31.0
aF40.0
aF37.0
aF45.0
aF45.0
aF45.0
aF45.0
aF48.0
aF42.0
aF38.0
aF44.0
aF38.0
aF44.0
aF28.0
aF36.0
aF32.0
aF29.0
aF45.0
aF38.0
aF34.0
aF36.0
aF47.0
aF39.0
asS'nsim_nonad'
p22
I10000
sS't_h'
p23
I13
sS't_s'
p24
I59
sS'r_nonad_rg'
p25
(lp26
F26.0
aF36.0
aF31.0
aF36.0
aF31.0
aF46.0
aF33.0
aF34.0
aF33.0
aF40.0
aF32.0
aF36.0
aF28.0
aF26.0
aF33.0
aF40.0
aF50.0
aF40.0
aF35.0
aF41.0
aF39.0
aF25.0
aF31.0
aF33.0
aF40.0
aF37.0
aF30.0
aF40.0
aF44.0
aF41.0
aF35.0
aF32.0
aF37.0
aF31.0
aF37.0
aF29.0
aF47.0
aF36.0
aF30.0
aF36.0
aF44.0
aF29.0
aF26.0
aF39.0
aF25.0
aF45.0
aF47.0
aF36.0
aF27.0
aF23.0
aF35.0
aF45.0
aF34.0
aF49.0
aF25.0
aF41.0
aF25.0
aF44.0
aF40.0
aF38.0
aF36.0
aF36.0
aF46.0
aF42.0
aF48.0
aF36.0
aF53.0
aF38.0
aF33.0
aF31.0
aF35.0
aF55.0
aF39.0
aF36.0
aF24.0
aF28.0
aF38.0
aF34.0
aF36.0
aF43.0
aF50.0
aF28.0
aF34.0
aF42.0
aF49.0
aF34.0
aF40.0
aF42.0
aF42.0
aF40.0
aF36.0
aF36.0
aF32.0
aF33.0
aF33.0
aF38.0
aF36.0
aF27.0
aF30.0
aF40.0
asS'workers'
p27
I7
sS'gamma'
p28
F1.0
sS'vcount'
p29
I1000
s.