(dp0
S'niter'
p1
I100
sS'v_ad'
p2
(lp3
I285
aI243
aI234
aI265
aI243
aI253
aI266
aI233
aI255
aI257
aI229
aI252
aI243
aI249
aI222
aI282
aI244
aI249
aI251
aI215
aI256
aI223
aI265
aI232
aI238
aI231
aI254
aI252
aI228
aI265
aI249
aI243
aI224
aI227
aI279
aI248
aI228
aI227
aI243
aI256
aI245
aI247
aI222
aI233
aI241
aI246
aI229
aI245
aI258
aI263
aI236
aI245
aI271
aI279
aI286
aI235
aI237
aI230
aI245
aI239
aI227
aI264
aI273
aI243
aI252
aI235
aI240
aI232
aI252
aI229
aI270
aI234
aI269
aI265
aI236
aI222
aI224
aI241
aI221
aI239
aI249
aI251
aI242
aI238
aI276
aI224
aI234
aI242
aI269
aI250
aI270
aI240
aI251
aI276
aI250
aI219
aI246
aI236
aI227
aI251
asS'trans'
p4
F0.8047941557912676
sS'ecount'
p5
I13033
sS'name'
p6
S'SNAP_GR_1000'
p7
sS't_m'
p8
I59
sS'v_nonad_g'
p9
(lp10
I2
aI70
aI92
aI127
aI219
aI75
aI427
aI177
aI391
aI239
aI299
aI389
aI168
aI752
aI130
aI165
aI380
aI376
aI144
aI171
aI242
aI289
aI187
aI174
aI620
aI444
aI603
aI128
aI288
aI286
aI309
aI801
aI243
aI479
aI221
aI146
aI518
aI657
aI297
aI162
aI178
aI469
aI898
aI428
aI292
aI419
aI413
aI983
aI283
aI844
aI939
aI318
aI628
aI658
aI541
aI711
aI369
aI647
aI635
aI689
aI256
aI550
aI394
aI545
aI203
aI619
aI640
aI959
aI253
aI782
aI695
aI615
aI877
aI817
aI274
aI617
aI565
aI929
aI410
aI436
aI880
aI412
aI846
aI558
aI345
aI933
aI337
aI727
aI511
aI463
aI816
aI499
aI890
aI715
aI717
aI765
aI748
aI751
aI757
aI919
aI581
aI589
aI917
aI449
aI938
aI354
aI702
aI771
aI554
aI968
aI360
aI661
aI978
aI698
aI512
aI745
aI787
aI825
aI870
aI631
aI789
aI618
aI945
aI759
aI673
aI987
aI966
aI553
aI638
aI737
aI849
aI624
aI508
aI785
aI516
aI820
aI833
aI976
aI781
aI304
aI622
aI839
aI686
aI762
aI888
aI864
aI998
aI696
aI650
aI889
aI616
aI850
aI838
aI699
aI847
aI430
aI613
asS'pedge'
p11
F0.15
sS'r_ad'
p12
(lp13
F586.0
aF623.0
aF619.0
aF592.0
aF615.0
aF602.0
aF591.0
aF623.0
aF599.0
aF611.0
aF626.0
aF610.0
aF628.0
aF607.0
aF632.0
aF584.0
aF625.0
aF619.0
aF613.0
aF643.0
aF603.0
aF628.0
aF615.0
aF619.0
aF646.0
aF623.0
aF609.0
aF613.0
aF635.0
aF603.0
aF608.0
aF635.0
aF628.0
aF637.0
aF590.0
aF623.0
aF638.0
aF634.0
aF607.0
aF607.0
aF615.0
aF608.0
aF635.0
aF635.0
aF622.0
aF623.0
aF628.0
aF617.0
aF595.0
aF598.0
aF613.0
aF631.0
aF606.0
aF587.0
aF579.0
aF631.0
aF617.0
aF625.0
aF607.0
aF625.0
aF629.0
aF592.0
aF596.0
aF614.0
aF616.0
aF632.0
aF617.0
aF629.0
aF614.0
aF640.0
aF591.0
aF637.0
aF604.0
aF594.0
aF630.0
aF639.0
aF650.0
aF615.0
aF634.0
aF625.0
aF602.0
aF605.0
aF624.0
aF634.0
aF592.0
aF634.0
aF628.0
aF614.0
aF608.0
aF618.0
aF593.0
aF631.0
aF598.0
aF582.0
aF607.0
aF630.0
aF618.0
aF630.0
aF636.0
aF607.0
asS'v_nonad_rg'
p14
(lp15
I138
aI224
aI437
aI35
aI760
aI201
aI160
aI260
aI121
aI128
aI81
aI566
aI627
aI413
aI576
aI572
aI616
aI469
aI209
aI501
aI458
aI242
aI927
aI255
aI311
aI888
aI391
aI820
aI302
aI679
aI668
aI606
aI642
aI878
aI474
aI699
aI853
aI911
aI523
aI447
aI418
aI416
aI268
aI579
aI534
aI550
aI131
aI500
aI378
aI935
aI778
aI233
aI797
aI417
aI915
aI340
aI947
aI404
aI381
aI187
aI174
aI565
aI181
aI319
aI430
aI635
aI144
aI842
aI617
aI269
aI345
aI253
aI518
aI676
aI764
aI886
aI547
aI619
aI698
aI870
aI544
aI369
aI980
aI538
aI691
aI766
aI629
aI869
aI954
aI608
aI638
aI537
aI531
aI453
aI683
aI973
aI715
aI162
aI851
aI243
aI154
aI771
aI326
aI831
aI845
aI898
aI570
aI757
aI661
aI637
aI737
aI524
aI464
aI639
aI708
aI833
aI734
aI876
aI832
aI650
aI713
aI720
aI784
aI753
aI182
aI913
aI983
aI634
aI829
aI835
aI694
aI459
aI905
aI996
aI894
aI591
aI917
aI605
aI834
aI892
aI448
aI353
aI695
aI603
aI873
aI682
aI997
aI985
aI675
aI526
aI552
aI479
aI988
aI516
aI613
aI723
aI849
aI722
aI839
aI373
aI604
aI950
aI256
aI822
aI602
aI930
aI899
aI806
aI864
aI707
aI837
aI354
aI611
aI178
aI900
aI706
aI574
aI308
aI966
aI846
aI929
aI949
aI789
aI507
aI889
aI712
aI995
aI788
aI803
aI810
aI512
aI696
aI394
aI945
aI967
aI850
asS'nsim_ad'
p16
I1000
sS'git'
p17
S'49779d6'
p18
sS'kratio'
p19
I3
sS'r_nonad_g'
p20
(lp21
F545.0
aF543.0
aF557.0
aF511.0
aF537.0
aF535.0
aF484.0
aF538.0
aF538.0
aF543.0
aF557.0
aF542.0
aF559.0
aF533.0
aF557.0
aF516.0
aF549.0
aF553.0
aF551.0
aF529.0
aF544.0
aF571.0
aF541.0
aF543.0
aF558.0
aF525.0
aF536.0
aF537.0
aF540.0
aF542.0
aF537.0
aF558.0
aF545.0
aF561.0
aF522.0
aF556.0
aF570.0
aF562.0
aF546.0
aF517.0
aF519.0
aF543.0
aF563.0
aF559.0
aF534.0
aF571.0
aF546.0
aF526.0
aF535.0
aF519.0
aF520.0
aF547.0
aF557.0
aF505.0
aF487.0
aF552.0
aF555.0
aF543.0
aF564.0
aF548.0
aF553.0
aF522.0
aF499.0
aF546.0
aF500.0
aF541.0
aF522.0
aF515.0
aF525.0
aF533.0
aF512.0
aF541.0
aF500.0
aF541.0
aF522.0
aF550.0
aF556.0
aF530.0
aF516.0
aF538.0
aF538.0
aF541.0
aF539.0
aF569.0
aF492.0
aF545.0
aF542.0
aF534.0
aF552.0
aF536.0
aF536.0
aF545.0
aF500.0
aF507.0
aF553.0
aF540.0
aF530.0
aF508.0
aF544.0
aF499.0
asS'nsim_nonad'
p22
I10000
sS't_h'
p23
I1
sS't_s'
p24
I50
sS'r_nonad_rg'
p25
(lp26
F534.0
aF520.0
aF541.0
aF519.0
aF542.0
aF531.0
aF501.0
aF559.0
aF526.0
aF520.0
aF530.0
aF517.0
aF537.0
aF526.0
aF531.0
aF486.0
aF547.0
aF550.0
aF539.0
aF549.0
aF515.0
aF553.0
aF535.0
aF525.0
aF558.0
aF519.0
aF531.0
aF541.0
aF532.0
aF529.0
aF519.0
aF534.0
aF557.0
aF553.0
aF505.0
aF538.0
aF573.0
aF562.0
aF544.0
aF498.0
aF529.0
aF494.0
aF539.0
aF554.0
aF557.0
aF528.0
aF542.0
aF532.0
aF534.0
aF519.0
aF511.0
aF552.0
aF543.0
aF526.0
aF497.0
aF530.0
aF533.0
aF545.0
aF538.0
aF553.0
aF515.0
aF517.0
aF491.0
aF543.0
aF474.0
aF546.0
aF508.0
aF518.0
aF498.0
aF535.0
aF514.0
aF527.0
aF514.0
aF534.0
aF524.0
aF545.0
aF550.0
aF513.0
aF544.0
aF539.0
aF523.0
aF532.0
aF537.0
aF549.0
aF508.0
aF511.0
aF527.0
aF528.0
aF526.0
aF531.0
aF531.0
aF552.0
aF508.0
aF511.0
aF542.0
aF535.0
aF525.0
aF532.0
aF549.0
aF512.0
asS'workers'
p27
I7
sS'gamma'
p28
F1.0
sS'vcount'
p29
I1000
s.