(dp0
S'niter'
p1
I100
sS'v_ad'
p2
(lp3
I77
aI72
aI83
aI76
aI67
aI86
aI90
aI78
aI62
aI77
aI63
aI75
aI72
aI75
aI82
aI46
aI64
aI71
aI75
aI77
aI97
aI80
aI74
aI78
aI65
aI76
aI82
aI85
aI87
aI74
aI82
aI77
aI98
aI71
aI79
aI70
aI68
aI75
aI79
aI56
aI74
aI68
aI75
aI69
aI64
aI77
aI63
aI106
aI89
aI83
aI72
aI65
aI78
aI82
aI73
aI75
aI80
aI65
aI73
aI70
aI88
aI70
aI55
aI85
aI82
aI90
aI70
aI63
aI64
aI72
aI70
aI68
aI103
aI66
aI68
aI83
aI78
aI77
aI66
aI63
aI52
aI78
aI79
aI81
aI67
aI71
aI74
aI68
aI54
aI96
aI73
aI61
aI68
aI84
aI69
aI85
aI70
aI76
aI79
aI70
asS'trans'
p4
F0.8047941557912676
sS'ecount'
p5
I13033
sS'name'
p6
S'SNAP_GR_1000'
p7
sS't_m'
p8
I5
sS'v_nonad_g'
p9
(lp10
I48
aI172
aI79
aI424
aI391
aI469
aI783
aI393
aI462
aI544
aI641
aI146
aI284
aI518
aI846
aI864
aI256
aI657
aI419
aI845
aI948
aI851
aI547
aI933
aI844
aI929
aI852
aI504
aI581
aI695
aI715
aI930
aI727
aI900
aI939
aI673
aI484
aI788
aI945
aI756
aI785
aI649
aI631
aI500
asS'pedge'
p11
F0.3
sS'r_ad'
p12
(lp13
F830.0
aF828.0
aF826.0
aF835.0
aF823.0
aF818.0
aF819.0
aF819.0
aF841.0
aF826.0
aF847.0
aF831.0
aF831.0
aF821.0
aF826.0
aF866.0
aF847.0
aF834.0
aF820.0
aF827.0
aF811.0
aF815.0
aF830.0
aF836.0
aF842.0
aF834.0
aF824.0
aF814.0
aF811.0
aF818.0
aF833.0
aF816.0
aF812.0
aF842.0
aF823.0
aF822.0
aF836.0
aF821.0
aF820.0
aF855.0
aF843.0
aF837.0
aF821.0
aF842.0
aF832.0
aF831.0
aF847.0
aF804.0
aF819.0
aF820.0
aF839.0
aF834.0
aF824.0
aF811.0
aF836.0
aF825.0
aF823.0
aF847.0
aF820.0
aF832.0
aF817.0
aF839.0
aF851.0
aF820.0
aF827.0
aF818.0
aF841.0
aF838.0
aF841.0
aF836.0
aF834.0
aF839.0
aF793.0
aF840.0
aF842.0
aF812.0
aF811.0
aF831.0
aF831.0
aF828.0
aF843.0
aF831.0
aF832.0
aF828.0
aF829.0
aF830.0
aF821.0
aF823.0
aF855.0
aF799.0
aF825.0
aF841.0
aF837.0
aF832.0
aF843.0
aF808.0
aF825.0
aF841.0
aF832.0
aF835.0
asS'v_nonad_rg'
p14
(lp15
I169
aI488
aI340
aI650
aI976
aI752
aI547
aI526
aI83
aI199
aI184
aI951
aI686
aI940
aI938
aI323
aI274
aI368
aI892
aI715
aI721
aI837
aI716
aI933
aI853
aI784
aI462
aI589
aI308
aI816
aI888
aI531
aI479
aI972
aI523
aI939
aI785
aI995
aI611
aI949
aI673
aI504
aI667
aI910
aI901
aI969
aI704
aI756
aI631
aI698
aI930
aI956
aI999
aI490
aI788
aI706
aI500
asS'nsim_ad'
p16
I1000
sS'git'
p17
S'49779d6'
p18
sS'kratio'
p19
I3
sS'r_nonad_g'
p20
(lp21
F797.0
aF775.0
aF794.0
aF770.0
aF780.0
aF807.0
aF757.0
aF768.0
aF789.0
aF782.0
aF750.0
aF801.0
aF780.0
aF795.0
aF772.0
aF823.0
aF790.0
aF788.0
aF783.0
aF794.0
aF759.0
aF780.0
aF770.0
aF766.0
aF814.0
aF791.0
aF782.0
aF758.0
aF759.0
aF787.0
aF781.0
aF760.0
aF772.0
aF786.0
aF777.0
aF776.0
aF780.0
aF784.0
aF755.0
aF815.0
aF805.0
aF806.0
aF765.0
aF793.0
aF757.0
aF771.0
aF823.0
aF762.0
aF762.0
aF783.0
aF788.0
aF797.0
aF732.0
aF764.0
aF803.0
aF781.0
aF777.0
aF813.0
aF769.0
aF790.0
aF797.0
aF781.0
aF812.0
aF765.0
aF795.0
aF772.0
aF801.0
aF790.0
aF809.0
aF788.0
aF767.0
aF797.0
aF725.0
aF796.0
aF809.0
aF766.0
aF779.0
aF793.0
aF781.0
aF789.0
aF810.0
aF745.0
aF798.0
aF743.0
aF779.0
aF742.0
aF791.0
aF777.0
aF829.0
aF766.0
aF784.0
aF799.0
aF788.0
aF794.0
aF807.0
aF763.0
aF790.0
aF792.0
aF782.0
aF793.0
asS'nsim_nonad'
p22
I10000
sS't_h'
p23
I1
sS't_s'
p24
I39
sS'r_nonad_rg'
p25
(lp26
F787.0
aF766.0
aF791.0
aF775.0
aF744.0
aF800.0
aF745.0
aF760.0
aF799.0
aF785.0
aF739.0
aF786.0
aF776.0
aF787.0
aF731.0
aF823.0
aF775.0
aF780.0
aF764.0
aF781.0
aF758.0
aF774.0
aF761.0
aF786.0
aF802.0
aF780.0
aF775.0
aF761.0
aF752.0
aF759.0
aF776.0
aF767.0
aF754.0
aF787.0
aF765.0
aF783.0
aF767.0
aF789.0
aF751.0
aF809.0
aF801.0
aF805.0
aF755.0
aF786.0
aF780.0
aF765.0
aF811.0
aF759.0
aF771.0
aF774.0
aF791.0
aF791.0
aF731.0
aF774.0
aF776.0
aF784.0
aF753.0
aF787.0
aF774.0
aF777.0
aF786.0
aF794.0
aF802.0
aF762.0
aF777.0
aF773.0
aF781.0
aF795.0
aF797.0
aF780.0
aF778.0
aF790.0
aF721.0
aF780.0
aF804.0
aF778.0
aF761.0
aF784.0
aF783.0
aF787.0
aF803.0
aF759.0
aF782.0
aF734.0
aF786.0
aF784.0
aF777.0
aF769.0
aF811.0
aF771.0
aF778.0
aF792.0
aF789.0
aF774.0
aF797.0
aF765.0
aF780.0
aF790.0
aF776.0
aF789.0
asS'workers'
p27
I7
sS'gamma'
p28
F1.0
sS'vcount'
p29
I1000
s.