(dp0
S'niter'
p1
I100
sS'v_ad'
p2
(lp3
I42
aI37
aI48
aI49
aI36
aI40
aI44
aI53
aI47
aI54
aI50
aI45
aI40
aI38
aI47
aI50
aI38
aI44
aI45
aI37
aI42
aI41
aI45
aI46
aI41
aI41
aI46
aI45
aI45
aI45
aI52
aI43
aI49
aI49
aI37
aI41
aI50
aI41
aI42
aI49
aI58
aI51
aI42
aI44
aI46
aI50
aI41
aI38
aI45
aI48
aI39
aI56
aI38
aI43
aI42
aI56
aI49
aI38
aI53
aI39
aI46
aI48
aI50
aI51
aI51
aI41
aI49
aI41
aI47
aI46
aI45
aI36
aI36
aI41
aI43
aI42
aI46
aI41
aI42
aI38
aI38
aI49
aI48
aI35
aI46
aI44
aI38
aI50
aI48
aI47
aI42
aI48
aI46
aI44
aI47
aI37
aI45
aI46
aI51
aI42
asS'trans'
p4
F0.6892001655525245
sS'ecount'
p5
I45990
sS'name'
p6
S'SNAP_FB_1000'
p7
sS't_m'
p8
I7
sS'v_nonad_g'
p9
(lp10
I145
aI431
aI293
aI916
aI396
aI342
aI978
aI768
aI689
aI935
aI682
aI870
aI760
aI776
aI841
aI992
aI787
aI799
aI208
aI644
aI633
aI926
aI902
asS'pedge'
p11
F0.5
sS'r_ad'
p12
(lp13
F945.0
aF947.0
aF938.0
aF934.0
aF951.0
aF946.0
aF937.0
aF931.0
aF939.0
aF934.0
aF936.0
aF942.0
aF945.0
aF945.0
aF936.0
aF940.0
aF948.0
aF939.0
aF942.0
aF951.0
aF943.0
aF948.0
aF944.0
aF941.0
aF944.0
aF946.0
aF934.0
aF938.0
aF936.0
aF940.0
aF933.0
aF940.0
aF937.0
aF933.0
aF947.0
aF943.0
aF941.0
aF942.0
aF942.0
aF939.0
aF929.0
aF932.0
aF946.0
aF947.0
aF941.0
aF936.0
aF947.0
aF946.0
aF943.0
aF935.0
aF943.0
aF926.0
aF943.0
aF941.0
aF942.0
aF931.0
aF941.0
aF954.0
aF929.0
aF944.0
aF938.0
aF941.0
aF933.0
aF932.0
aF935.0
aF939.0
aF932.0
aF945.0
aF938.0
aF940.0
aF943.0
aF947.0
aF943.0
aF937.0
aF942.0
aF941.0
aF943.0
aF946.0
aF943.0
aF946.0
aF939.0
aF933.0
aF935.0
aF951.0
aF935.0
aF939.0
aF945.0
aF937.0
aF940.0
aF938.0
aF942.0
aF936.0
aF939.0
aF941.0
aF939.0
aF953.0
aF939.0
aF936.0
aF935.0
aF940.0
asS'v_nonad_rg'
p14
(lp15
I517
aI904
aI284
aI479
aI760
aI713
aI994
aI834
aI483
aI841
aI711
aI542
aI871
aI682
aI342
aI214
aI783
aI76
aI208
aI899
aI579
aI800
aI689
aI293
aI431
aI942
aI940
aI396
aI787
aI926
aI887
aI941
aI935
aI768
aI776
aI644
aI870
aI799
aI145
aI916
aI992
aI425
aI633
aI978
asS'nsim_ad'
p16
I1000
sS'git'
p17
S'fcb943d'
p18
sS'kratio'
p19
I10
sS'r_nonad_g'
p20
(lp21
F958.0
aF960.0
aF952.0
aF944.0
aF967.0
aF952.0
aF946.0
aF951.0
aF962.0
aF949.0
aF958.0
aF958.0
aF956.0
aF955.0
aF953.0
aF963.0
aF950.0
aF961.0
aF959.0
aF955.0
aF952.0
aF956.0
aF965.0
aF955.0
aF961.0
aF956.0
aF954.0
aF955.0
aF948.0
aF955.0
aF948.0
aF947.0
aF952.0
aF947.0
aF959.0
aF958.0
aF961.0
aF954.0
aF955.0
aF961.0
aF951.0
aF955.0
aF957.0
aF966.0
aF960.0
aF939.0
aF953.0
aF952.0
aF958.0
aF955.0
aF960.0
aF947.0
aF955.0
aF950.0
aF963.0
aF943.0
aF955.0
aF956.0
aF952.0
aF954.0
aF955.0
aF960.0
aF951.0
aF960.0
aF949.0
aF949.0
aF946.0
aF961.0
aF954.0
aF956.0
aF966.0
aF959.0
aF950.0
aF951.0
aF953.0
aF957.0
aF955.0
aF965.0
aF961.0
aF958.0
aF950.0
aF948.0
aF951.0
aF961.0
aF949.0
aF951.0
aF955.0
aF960.0
aF956.0
aF952.0
aF953.0
aF952.0
aF958.0
aF958.0
aF950.0
aF959.0
aF949.0
aF944.0
aF953.0
aF948.0
asS'nsim_nonad'
p22
I10000
sS't_h'
p23
I1
sS't_s'
p24
I35
sS'r_nonad_rg'
p25
(lp26
F939.0
aF933.0
aF935.0
aF938.0
aF946.0
aF938.0
aF932.0
aF935.0
aF943.0
aF933.0
aF941.0
aF937.0
aF944.0
aF936.0
aF935.0
aF942.0
aF938.0
aF939.0
aF939.0
aF947.0
aF939.0
aF937.0
aF946.0
aF939.0
aF946.0
aF946.0
aF935.0
aF941.0
aF934.0
aF937.0
aF939.0
aF938.0
aF935.0
aF934.0
aF942.0
aF942.0
aF944.0
aF940.0
aF937.0
aF943.0
aF936.0
aF943.0
aF938.0
aF947.0
aF946.0
aF927.0
aF944.0
aF940.0
aF945.0
aF939.0
aF941.0
aF928.0
aF938.0
aF936.0
aF941.0
aF928.0
aF939.0
aF942.0
aF936.0
aF936.0
aF940.0
aF943.0
aF938.0
aF944.0
aF934.0
aF934.0
aF933.0
aF946.0
aF936.0
aF944.0
aF946.0
aF944.0
aF939.0
aF935.0
aF935.0
aF941.0
aF938.0
aF942.0
aF943.0
aF941.0
aF935.0
aF935.0
aF937.0
aF941.0
aF933.0
aF932.0
aF941.0
aF939.0
aF939.0
aF936.0
aF934.0
aF940.0
aF945.0
aF941.0
aF932.0
aF943.0
aF938.0
aF934.0
aF939.0
aF942.0
asS'workers'
p27
I7
sS'gamma'
p28
F1.0
sS'vcount'
p29
I1000
s.