(dp0
S'niter'
p1
I100
sS'v_ad'
p2
(lp3
I100
aI100
aI100
aI100
aI100
aI100
aI100
aI100
aI100
aI100
aI100
aI100
aI100
aI100
aI100
aI100
aI100
aI100
aI100
aI100
aI100
aI100
aI100
aI100
aI100
aI100
aI100
aI100
aI100
aI100
aI100
aI100
aI100
aI100
aI100
aI100
aI100
aI100
aI100
aI100
aI100
aI100
aI100
aI100
aI100
aI100
aI100
aI100
aI100
aI100
aI100
aI100
aI100
aI100
aI100
aI100
aI100
aI100
aI100
aI100
aI100
aI100
aI100
aI100
aI100
aI100
aI100
aI100
aI100
aI100
aI100
aI100
aI100
aI100
aI100
aI100
aI100
aI100
aI100
aI100
aI100
aI100
aI100
aI100
aI100
aI100
aI100
aI100
aI100
aI100
aI100
aI100
aI100
aI100
aI100
aI100
aI100
aI100
aI100
aI100
asS'trans'
p4
F0.6892001655525245
sS'ecount'
p5
I45990
sS'name'
p6
S'SNAP_FB_1000'
p7
sS't_m'
p8
I57
sS'v_nonad_g'
p9
(lp10
I145
aI7
aI396
aI431
aI342
aI644
aI293
aI208
aI284
aI682
aI382
aI162
aI507
aI655
aI214
aI152
aI902
aI619
aI392
aI335
aI579
aI378
aI306
aI749
aI621
aI841
aI916
aI787
aI267
aI453
aI665
aI760
aI622
aI650
aI967
aI978
aI768
aI497
aI935
aI483
aI127
aI870
aI712
aI434
aI878
aI923
aI355
aI886
aI799
aI979
aI356
aI925
aI776
aI494
aI744
aI800
aI365
aI689
aI84
aI893
aI305
aI734
aI926
aI633
aI479
aI753
aI875
aI647
aI510
aI714
aI822
aI480
aI968
aI707
aI484
aI959
aI449
aI840
aI866
aI425
aI290
aI927
aI620
aI535
aI994
aI887
aI726
aI788
aI161
aI659
aI66
aI907
aI992
aI871
aI989
aI903
aI899
aI471
aI846
aI838
asS'pedge'
p11
F0.1
sS'r_ad'
p12
(lp13
F777.0
aF767.0
aF763.0
aF758.0
aF791.0
aF774.0
aF782.0
aF758.0
aF765.0
aF795.0
aF774.0
aF777.0
aF772.0
aF758.0
aF765.0
aF753.0
aF764.0
aF771.0
aF780.0
aF755.0
aF794.0
aF783.0
aF753.0
aF762.0
aF790.0
aF763.0
aF763.0
aF765.0
aF752.0
aF783.0
aF764.0
aF775.0
aF780.0
aF769.0
aF769.0
aF770.0
aF785.0
aF745.0
aF781.0
aF796.0
aF771.0
aF775.0
aF772.0
aF765.0
aF781.0
aF766.0
aF768.0
aF767.0
aF769.0
aF768.0
aF765.0
aF773.0
aF778.0
aF802.0
aF776.0
aF760.0
aF766.0
aF762.0
aF789.0
aF758.0
aF781.0
aF763.0
aF770.0
aF782.0
aF778.0
aF764.0
aF763.0
aF772.0
aF770.0
aF757.0
aF767.0
aF755.0
aF788.0
aF777.0
aF754.0
aF762.0
aF757.0
aF782.0
aF743.0
aF764.0
aF786.0
aF761.0
aF769.0
aF754.0
aF779.0
aF767.0
aF778.0
aF779.0
aF775.0
aF777.0
aF788.0
aF783.0
aF768.0
aF777.0
aF758.0
aF761.0
aF781.0
aF779.0
aF755.0
aF757.0
asS'v_nonad_rg'
p14
(lp15
I77
aI288
aI5
aI293
aI667
aI878
aI902
aI306
aI80
aI159
aI838
aI494
aI635
aI363
aI691
aI658
aI749
aI378
aI674
aI804
aI479
aI597
aI39
aI712
aI208
aI478
aI799
aI66
aI927
aI893
aI735
aI909
aI968
aI787
aI734
aI622
aI872
aI355
aI507
aI822
aI380
aI366
aI43
aI840
aI669
aI290
aI480
aI382
aI925
aI956
aI857
aI841
aI961
aI768
aI935
aI886
aI659
aI644
aI887
aI926
aI655
aI89
aI24
aI633
aI127
aI903
aI707
aI483
aI450
aI315
aI849
aI711
aI214
aI806
aI988
aI267
aI431
aI305
aI835
aI579
aI905
aI978
aI76
aI682
aI767
aI952
aI923
aI100
aI755
aI449
aI726
aI854
aI365
aI535
aI763
aI995
aI987
aI162
aI834
aI846
asS'nsim_ad'
p16
I1000
sS'git'
p17
S'fcb943d'
p18
sS'kratio'
p19
I10
sS'r_nonad_g'
p20
(lp21
F777.0
aF789.0
aF786.0
aF775.0
aF783.0
aF790.0
aF790.0
aF791.0
aF767.0
aF795.0
aF791.0
aF779.0
aF792.0
aF761.0
aF780.0
aF781.0
aF770.0
aF776.0
aF785.0
aF760.0
aF799.0
aF788.0
aF778.0
aF767.0
aF798.0
aF783.0
aF781.0
aF785.0
aF782.0
aF788.0
aF773.0
aF792.0
aF786.0
aF778.0
aF776.0
aF785.0
aF787.0
aF764.0
aF796.0
aF798.0
aF779.0
aF781.0
aF788.0
aF793.0
aF778.0
aF790.0
aF791.0
aF793.0
aF781.0
aF772.0
aF785.0
aF785.0
aF788.0
aF795.0
aF770.0
aF770.0
aF781.0
aF771.0
aF776.0
aF775.0
aF782.0
aF763.0
aF788.0
aF802.0
aF782.0
aF790.0
aF788.0
aF777.0
aF790.0
aF782.0
aF756.0
aF784.0
aF795.0
aF783.0
aF775.0
aF791.0
aF789.0
aF786.0
aF783.0
aF782.0
aF802.0
aF771.0
aF781.0
aF772.0
aF789.0
aF796.0
aF790.0
aF790.0
aF804.0
aF792.0
aF791.0
aF791.0
aF786.0
aF771.0
aF797.0
aF779.0
aF787.0
aF784.0
aF785.0
aF780.0
asS'nsim_nonad'
p22
I10000
sS't_h'
p23
I1
sS't_s'
p24
I33
sS'r_nonad_rg'
p25
(lp26
F766.0
aF762.0
aF752.0
aF751.0
aF750.0
aF758.0
aF763.0
aF772.0
aF750.0
aF766.0
aF753.0
aF726.0
aF772.0
aF735.0
aF757.0
aF757.0
aF731.0
aF735.0
aF776.0
aF741.0
aF765.0
aF777.0
aF728.0
aF748.0
aF743.0
aF759.0
aF751.0
aF766.0
aF736.0
aF751.0
aF745.0
aF752.0
aF763.0
aF755.0
aF738.0
aF751.0
aF757.0
aF738.0
aF760.0
aF779.0
aF734.0
aF740.0
aF753.0
aF749.0
aF751.0
aF760.0
aF742.0
aF760.0
aF764.0
aF744.0
aF754.0
aF751.0
aF762.0
aF765.0
aF748.0
aF730.0
aF748.0
aF756.0
aF752.0
aF753.0
aF756.0
aF752.0
aF761.0
aF761.0
aF763.0
aF761.0
aF771.0
aF751.0
aF750.0
aF740.0
aF748.0
aF751.0
aF762.0
aF748.0
aF743.0
aF743.0
aF743.0
aF759.0
aF746.0
aF762.0
aF781.0
aF752.0
aF747.0
aF737.0
aF750.0
aF765.0
aF744.0
aF767.0
aF778.0
aF762.0
aF749.0
aF767.0
aF763.0
aF725.0
aF772.0
aF754.0
aF747.0
aF782.0
aF766.0
aF756.0
asS'workers'
p27
I7
sS'gamma'
p28
F1.0
sS'vcount'
p29
I1000
s.