(dp0
S'niter'
p1
I100
sS'v_ad'
p2
(lp3
I58
aI46
aI49
aI64
aI54
aI40
aI52
aI47
aI54
aI54
aI60
aI54
aI53
aI61
aI55
aI45
aI48
aI45
aI54
aI54
aI54
aI57
aI53
aI49
aI61
aI45
aI60
aI57
aI57
aI57
aI56
aI49
aI64
aI59
aI53
aI53
aI51
aI59
aI49
aI52
aI61
aI48
aI53
aI57
aI49
aI56
aI66
aI62
aI62
aI61
aI56
aI54
aI51
aI53
aI63
aI50
aI53
aI49
aI55
aI53
aI52
aI54
aI59
aI53
aI54
aI58
aI59
aI57
aI57
aI49
aI53
aI48
aI57
aI50
aI56
aI53
aI60
aI51
aI61
aI46
aI68
aI46
aI63
aI49
aI56
aI53
aI53
aI56
aI51
aI59
aI59
aI63
aI57
aI51
aI53
aI48
aI64
aI58
aI48
aI57
asS'trans'
p4
F0.6892001655525245
sS'ecount'
p5
I45990
sS'name'
p6
S'SNAP_FB_1000'
p7
sS't_m'
p8
I1
sS'v_nonad_g'
p9
(lp10
I145
aI431
aI293
aI644
aI396
aI342
aI978
aI768
aI689
aI935
aI682
aI870
aI7
aI760
aI916
aI787
aI841
aI208
aI633
aI992
aI902
aI886
aI799
aI579
aI866
aI776
aI926
aI925
aI483
asS'pedge'
p11
F0.4
sS'r_ad'
p12
(lp13
F930.0
aF935.0
aF933.0
aF925.0
aF923.0
aF945.0
aF927.0
aF935.0
aF928.0
aF932.0
aF929.0
aF928.0
aF930.0
aF920.0
aF929.0
aF934.0
aF932.0
aF940.0
aF929.0
aF928.0
aF927.0
aF924.0
aF932.0
aF933.0
aF921.0
aF939.0
aF924.0
aF930.0
aF926.0
aF925.0
aF925.0
aF937.0
aF917.0
aF921.0
aF932.0
aF925.0
aF934.0
aF928.0
aF933.0
aF929.0
aF926.0
aF930.0
aF930.0
aF926.0
aF929.0
aF930.0
aF922.0
aF916.0
aF924.0
aF928.0
aF926.0
aF927.0
aF930.0
aF927.0
aF923.0
aF930.0
aF929.0
aF927.0
aF924.0
aF931.0
aF931.0
aF927.0
aF923.0
aF928.0
aF934.0
aF926.0
aF922.0
aF931.0
aF922.0
aF939.0
aF930.0
aF929.0
aF928.0
aF934.0
aF926.0
aF931.0
aF926.0
aF931.0
aF929.0
aF936.0
aF914.0
aF934.0
aF924.0
aF937.0
aF923.0
aF925.0
aF926.0
aF928.0
aF935.0
aF924.0
aF927.0
aF917.0
aF930.0
aF927.0
aF932.0
aF935.0
aF925.0
aF926.0
aF936.0
aF926.0
asS'v_nonad_rg'
p14
(lp15
I517
aI363
aI735
aI479
aI53
aI579
aI994
aI293
aI926
aI380
aI988
aI705
aI886
aI818
aI24
aI602
aI799
aI392
aI267
aI711
aI872
aI942
aI783
aI305
aI431
aI7
aI838
aI483
aI902
aI995
aI342
aI941
aI425
aI689
aI127
aI145
aI925
aI968
aI644
aI787
aI992
aI776
aI633
aI682
aI978
aI768
aI760
aI935
aI622
aI284
aI870
aI396
aI916
aI841
asS'nsim_ad'
p16
I1000
sS'git'
p17
S'fcb943d'
p18
sS'kratio'
p19
I10
sS'r_nonad_g'
p20
(lp21
F948.0
aF944.0
aF939.0
aF948.0
aF945.0
aF943.0
aF942.0
aF937.0
aF942.0
aF948.0
aF944.0
aF950.0
aF940.0
aF949.0
aF938.0
aF943.0
aF940.0
aF948.0
aF941.0
aF944.0
aF946.0
aF943.0
aF933.0
aF939.0
aF931.0
aF946.0
aF944.0
aF948.0
aF941.0
aF949.0
aF945.0
aF932.0
aF941.0
aF930.0
aF943.0
aF937.0
aF944.0
aF949.0
aF946.0
aF945.0
aF941.0
aF941.0
aF948.0
aF941.0
aF943.0
aF935.0
aF938.0
aF945.0
aF942.0
aF953.0
aF942.0
aF943.0
aF941.0
aF947.0
aF937.0
aF939.0
aF947.0
aF935.0
aF924.0
aF941.0
aF940.0
aF949.0
aF936.0
aF932.0
aF950.0
aF931.0
aF938.0
aF943.0
aF937.0
aF953.0
aF940.0
aF944.0
aF940.0
aF940.0
aF941.0
aF939.0
aF954.0
aF944.0
aF949.0
aF954.0
aF938.0
aF936.0
aF940.0
aF953.0
aF932.0
aF938.0
aF950.0
aF948.0
aF946.0
aF943.0
aF944.0
aF942.0
aF952.0
aF939.0
aF935.0
aF947.0
aF949.0
aF929.0
aF945.0
aF941.0
asS'nsim_nonad'
p22
I10000
sS't_h'
p23
I1
sS't_s'
p24
I9
sS'r_nonad_rg'
p25
(lp26
F927.0
aF922.0
aF919.0
aF925.0
aF923.0
aF926.0
aF923.0
aF921.0
aF926.0
aF926.0
aF927.0
aF926.0
aF924.0
aF925.0
aF918.0
aF923.0
aF923.0
aF926.0
aF924.0
aF922.0
aF925.0
aF922.0
aF914.0
aF921.0
aF911.0
aF926.0
aF926.0
aF926.0
aF916.0
aF930.0
aF921.0
aF919.0
aF925.0
aF916.0
aF923.0
aF920.0
aF926.0
aF927.0
aF925.0
aF921.0
aF925.0
aF923.0
aF923.0
aF920.0
aF920.0
aF915.0
aF921.0
aF920.0
aF924.0
aF927.0
aF920.0
aF922.0
aF925.0
aF931.0
aF921.0
aF918.0
aF929.0
aF917.0
aF909.0
aF917.0
aF920.0
aF924.0
aF921.0
aF919.0
aF927.0
aF916.0
aF919.0
aF924.0
aF916.0
aF929.0
aF926.0
aF923.0
aF925.0
aF923.0
aF920.0
aF912.0
aF933.0
aF925.0
aF924.0
aF931.0
aF917.0
aF922.0
aF925.0
aF932.0
aF916.0
aF926.0
aF928.0
aF928.0
aF926.0
aF926.0
aF922.0
aF920.0
aF929.0
aF923.0
aF915.0
aF929.0
aF927.0
aF915.0
aF923.0
aF926.0
asS'workers'
p27
I7
sS'gamma'
p28
F1.0
sS'vcount'
p29
I1000
s.