(dp0
S'niter'
p1
I100
sS'v_ad'
p2
(lp3
I63
aI64
aI78
aI68
aI67
aI79
aI66
aI73
aI66
aI70
aI67
aI58
aI76
aI64
aI61
aI68
aI67
aI68
aI70
aI64
aI70
aI75
aI83
aI85
aI64
aI69
aI60
aI60
aI80
aI72
aI80
aI80
aI65
aI75
aI78
aI66
aI60
aI69
aI70
aI81
aI69
aI84
aI73
aI51
aI74
aI75
aI82
aI73
aI79
aI72
aI63
aI60
aI79
aI58
aI79
aI68
aI67
aI74
aI65
aI79
aI77
aI78
aI66
aI71
aI65
aI75
aI65
aI70
aI74
aI71
aI67
aI74
aI77
aI55
aI67
aI58
aI81
aI63
aI84
aI64
aI76
aI57
aI84
aI75
aI72
aI82
aI72
aI79
aI91
aI76
aI70
aI69
aI66
aI78
aI68
aI69
aI78
aI64
aI74
aI68
asS'trans'
p4
F0.8047941557912676
sS'ecount'
p5
I13033
sS'name'
p6
S'SNAP_GR_1000'
p7
sS't_m'
p8
I43
sS'v_nonad_g'
p9
(lp10
I0
aI61
aI110
aI127
aI75
aI212
aI397
aI177
aI136
aI305
aI40
aI239
aI129
aI130
aI153
aI144
aI299
aI174
aI168
aI389
aI441
aI41
aI306
aI380
aI171
aI340
aI143
aI347
aI383
aI437
aI253
aI243
aI497
aI439
aI603
aI162
aI163
aI207
aI221
aI418
aI103
aI444
aI289
aI199
aI242
aI187
aI288
asS'pedge'
p11
F0.1
sS'r_ad'
p12
(lp13
F352.0
aF361.0
aF314.0
aF359.0
aF362.0
aF307.0
aF352.0
aF320.0
aF363.0
aF314.0
aF359.0
aF369.0
aF310.0
aF365.0
aF380.0
aF324.0
aF338.0
aF349.0
aF353.0
aF359.0
aF335.0
aF341.0
aF315.0
aF303.0
aF366.0
aF363.0
aF365.0
aF372.0
aF313.0
aF336.0
aF315.0
aF316.0
aF373.0
aF328.0
aF329.0
aF382.0
aF368.0
aF358.0
aF361.0
aF330.0
aF329.0
aF308.0
aF345.0
aF405.0
aF332.0
aF336.0
aF334.0
aF352.0
aF313.0
aF328.0
aF369.0
aF382.0
aF328.0
aF365.0
aF324.0
aF342.0
aF373.0
aF334.0
aF355.0
aF334.0
aF333.0
aF317.0
aF356.0
aF347.0
aF373.0
aF323.0
aF342.0
aF333.0
aF343.0
aF349.0
aF347.0
aF346.0
aF339.0
aF372.0
aF349.0
aF362.0
aF320.0
aF390.0
aF304.0
aF356.0
aF337.0
aF366.0
aF311.0
aF336.0
aF362.0
aF311.0
aF361.0
aF307.0
aF275.0
aF337.0
aF341.0
aF344.0
aF350.0
aF331.0
aF356.0
aF331.0
aF302.0
aF370.0
aF335.0
aF382.0
asS'v_nonad_rg'
p14
(lp15
I13
aI73
aI271
aI224
aI517
aI119
aI347
aI368
aI223
aI436
aI466
aI143
aI153
aI355
aI339
aI235
aI350
aI384
aI962
aI393
aI338
aI658
aI934
aI567
aI566
aI529
aI174
aI292
aI131
aI396
aI41
aI208
aI314
aI283
aI306
aI316
aI165
aI495
aI430
aI315
aI505
aI415
aI544
aI182
aI171
aI163
aI497
aI150
aI255
aI243
aI310
aI164
aI242
asS'nsim_ad'
p16
I1000
sS'git'
p17
S'6993752'
p18
sS'kratio'
p19
I10
sS'r_nonad_g'
p20
(lp21
F296.0
aF319.0
aF312.0
aF320.0
aF351.0
aF310.0
aF329.0
aF289.0
aF343.0
aF309.0
aF321.0
aF335.0
aF284.0
aF317.0
aF312.0
aF301.0
aF288.0
aF311.0
aF315.0
aF324.0
aF296.0
aF339.0
aF274.0
aF281.0
aF344.0
aF333.0
aF338.0
aF360.0
aF299.0
aF304.0
aF315.0
aF314.0
aF345.0
aF312.0
aF307.0
aF334.0
aF331.0
aF286.0
aF352.0
aF312.0
aF321.0
aF281.0
aF286.0
aF369.0
aF337.0
aF249.0
aF329.0
aF324.0
aF304.0
aF291.0
aF371.0
aF330.0
aF299.0
aF296.0
aF307.0
aF317.0
aF321.0
aF311.0
aF339.0
aF308.0
aF307.0
aF304.0
aF301.0
aF321.0
aF304.0
aF301.0
aF327.0
aF300.0
aF296.0
aF309.0
aF295.0
aF287.0
aF332.0
aF308.0
aF315.0
aF349.0
aF312.0
aF345.0
aF290.0
aF314.0
aF307.0
aF320.0
aF307.0
aF312.0
aF352.0
aF299.0
aF314.0
aF279.0
aF274.0
aF295.0
aF326.0
aF320.0
aF341.0
aF328.0
aF288.0
aF313.0
aF305.0
aF309.0
aF309.0
aF333.0
asS'nsim_nonad'
p22
I10000
sS't_h'
p23
I1
sS't_s'
p24
I13
sS'r_nonad_rg'
p25
(lp26
F282.0
aF323.0
aF309.0
aF320.0
aF355.0
aF294.0
aF315.0
aF276.0
aF352.0
aF317.0
aF331.0
aF307.0
aF296.0
aF324.0
aF326.0
aF277.0
aF336.0
aF290.0
aF335.0
aF320.0
aF305.0
aF295.0
aF261.0
aF287.0
aF359.0
aF348.0
aF320.0
aF344.0
aF301.0
aF309.0
aF304.0
aF276.0
aF317.0
aF277.0
aF303.0
aF334.0
aF315.0
aF284.0
aF326.0
aF323.0
aF307.0
aF267.0
aF326.0
aF349.0
aF316.0
aF314.0
aF309.0
aF328.0
aF295.0
aF327.0
aF359.0
aF327.0
aF287.0
aF300.0
aF298.0
aF316.0
aF267.0
aF316.0
aF298.0
aF323.0
aF310.0
aF281.0
aF286.0
aF231.0
aF309.0
aF275.0
aF317.0
aF265.0
aF278.0
aF296.0
aF286.0
aF327.0
aF338.0
aF310.0
aF308.0
aF315.0
aF284.0
aF318.0
aF299.0
aF324.0
aF328.0
aF289.0
aF299.0
aF291.0
aF315.0
aF215.0
aF299.0
aF285.0
aF252.0
aF319.0
aF290.0
aF302.0
aF326.0
aF297.0
aF291.0
aF310.0
aF287.0
aF329.0
aF297.0
aF313.0
asS'workers'
p27
I4
sS'gamma'
p28
F2.0
sS'vcount'
p29
I1000
s.