(dp0
S'niter'
p1
I100
sS'v_ad'
p2
(lp3
I26
aI26
aI24
aI24
aI25
aI22
aI21
aI33
aI22
aI19
aI32
aI24
aI23
aI28
aI26
aI24
aI19
aI17
aI31
aI25
aI29
aI20
aI23
aI24
aI20
aI23
aI17
aI23
aI40
aI26
aI20
aI30
aI35
aI28
aI34
aI26
aI23
aI21
aI33
aI26
aI26
aI29
aI22
aI23
aI20
aI24
aI22
aI23
aI24
aI26
aI23
aI19
aI20
aI9
aI37
aI26
aI32
aI24
aI13
aI18
aI22
aI24
aI23
aI28
aI25
aI31
aI24
aI21
aI22
aI28
aI16
aI16
aI18
aI26
aI19
aI28
aI27
aI19
aI22
aI25
aI25
aI20
aI21
aI21
aI26
aI23
aI23
aI20
aI22
aI16
aI27
aI23
aI24
aI23
aI17
aI20
aI26
aI19
aI19
aI17
asS'trans'
p4
F0.8047941557912676
sS'ecount'
p5
I13033
sS'name'
p6
S'SNAP_GR_1000'
p7
sS't_m'
p8
I2
sS'v_nonad_g'
p9
(lp10
I48
aI172
aI79
aI424
aI391
aI469
aI783
aI393
aI462
aI544
asS'pedge'
p11
F0.3
sS'r_ad'
p12
(lp13
F769.0
aF782.0
aF791.0
aF787.0
aF789.0
aF797.0
aF803.0
aF772.0
aF794.0
aF795.0
aF772.0
aF799.0
aF801.0
aF769.0
aF775.0
aF782.0
aF804.0
aF806.0
aF779.0
aF772.0
aF764.0
aF811.0
aF768.0
aF803.0
aF796.0
aF793.0
aF801.0
aF801.0
aF748.0
aF775.0
aF783.0
aF762.0
aF770.0
aF780.0
aF769.0
aF778.0
aF796.0
aF785.0
aF774.0
aF788.0
aF790.0
aF779.0
aF804.0
aF785.0
aF783.0
aF784.0
aF802.0
aF778.0
aF779.0
aF790.0
aF794.0
aF785.0
aF784.0
aF806.0
aF747.0
aF782.0
aF765.0
aF802.0
aF806.0
aF800.0
aF793.0
aF776.0
aF784.0
aF751.0
aF765.0
aF757.0
aF796.0
aF787.0
aF806.0
aF781.0
aF803.0
aF805.0
aF809.0
aF779.0
aF805.0
aF778.0
aF776.0
aF804.0
aF786.0
aF791.0
aF769.0
aF788.0
aF808.0
aF801.0
aF790.0
aF780.0
aF785.0
aF804.0
aF793.0
aF796.0
aF778.0
aF798.0
aF784.0
aF790.0
aF778.0
aF781.0
aF790.0
aF793.0
aF788.0
aF802.0
asS'v_nonad_rg'
p14
(lp15
I16
aI79
aI193
aI904
aI678
aI407
aI482
aI217
aI658
aI809
aI544
aI464
aI972
asS'nsim_ad'
p16
I1000
sS'git'
p17
S'6993752'
p18
sS'kratio'
p19
I10
sS'r_nonad_g'
p20
(lp21
F750.0
aF762.0
aF766.0
aF767.0
aF757.0
aF755.0
aF780.0
aF712.0
aF765.0
aF784.0
aF742.0
aF767.0
aF787.0
aF739.0
aF707.0
aF765.0
aF787.0
aF785.0
aF775.0
aF756.0
aF754.0
aF778.0
aF760.0
aF776.0
aF777.0
aF751.0
aF778.0
aF772.0
aF713.0
aF738.0
aF758.0
aF733.0
aF742.0
aF735.0
aF739.0
aF772.0
aF778.0
aF745.0
aF741.0
aF770.0
aF785.0
aF724.0
aF789.0
aF755.0
aF741.0
aF761.0
aF792.0
aF757.0
aF758.0
aF774.0
aF773.0
aF767.0
aF773.0
aF790.0
aF702.0
aF750.0
aF734.0
aF779.0
aF784.0
aF783.0
aF766.0
aF766.0
aF758.0
aF730.0
aF747.0
aF748.0
aF742.0
aF761.0
aF782.0
aF753.0
aF776.0
aF797.0
aF768.0
aF771.0
aF785.0
aF756.0
aF745.0
aF780.0
aF769.0
aF778.0
aF753.0
aF748.0
aF761.0
aF728.0
aF771.0
aF750.0
aF750.0
aF784.0
aF774.0
aF791.0
aF735.0
aF783.0
aF774.0
aF775.0
aF740.0
aF765.0
aF775.0
aF766.0
aF770.0
aF788.0
asS'nsim_nonad'
p22
I10000
sS't_h'
p23
I1
sS't_s'
p24
I39
sS'r_nonad_rg'
p25
(lp26
F747.0
aF758.0
aF761.0
aF759.0
aF754.0
aF749.0
aF776.0
aF745.0
aF760.0
aF780.0
aF741.0
aF763.0
aF782.0
aF734.0
aF703.0
aF760.0
aF784.0
aF779.0
aF771.0
aF750.0
aF746.0
aF771.0
aF755.0
aF770.0
aF771.0
aF760.0
aF775.0
aF774.0
aF702.0
aF733.0
aF752.0
aF730.0
aF737.0
aF735.0
aF733.0
aF770.0
aF772.0
aF739.0
aF736.0
aF764.0
aF780.0
aF748.0
aF783.0
aF751.0
aF763.0
aF756.0
aF786.0
aF751.0
aF756.0
aF768.0
aF765.0
aF762.0
aF750.0
aF786.0
aF725.0
aF745.0
aF729.0
aF776.0
aF780.0
aF779.0
aF760.0
aF760.0
aF753.0
aF725.0
aF730.0
aF742.0
aF763.0
aF755.0
aF778.0
aF752.0
aF771.0
aF792.0
aF763.0
aF765.0
aF783.0
aF753.0
aF739.0
aF774.0
aF762.0
aF742.0
aF751.0
aF742.0
aF758.0
aF750.0
aF766.0
aF745.0
aF768.0
aF770.0
aF768.0
aF786.0
aF729.0
aF778.0
aF769.0
aF766.0
aF734.0
aF767.0
aF753.0
aF765.0
aF764.0
aF777.0
asS'workers'
p27
I4
sS'gamma'
p28
F2.0
sS'vcount'
p29
I1000
s.