(dp0
S'niter'
p1
I100
sS'v_ad'
p2
(lp3
I4
aI12
aI12
aI11
aI8
aI5
aI6
aI8
aI4
aI11
aI19
aI8
aI7
aI5
aI7
aI11
aI13
aI13
aI10
aI3
aI10
aI27
aI7
aI9
aI10
aI12
aI5
aI14
aI9
aI12
aI10
aI6
aI6
aI10
aI5
aI8
aI8
aI9
aI11
aI8
aI10
aI8
aI10
aI12
aI13
aI7
aI8
aI8
aI6
aI14
aI12
aI7
aI8
aI8
aI8
aI11
aI7
aI6
aI9
aI10
aI13
aI9
aI11
aI10
aI12
aI10
aI17
aI11
aI6
aI16
aI9
aI5
aI10
aI10
aI13
aI10
aI9
aI11
aI11
aI9
aI8
aI12
aI10
aI4
aI3
aI9
aI7
aI9
aI10
aI7
aI17
aI16
aI9
aI10
aI13
aI11
aI6
aI8
aI9
aI17
asS'trans'
p4
F0.009741868016951951
sS'ecount'
p5
I3994
sS'name'
p6
S'B_A_1000_2'
p7
sS't_m'
p8
I52
sS'v_nonad_g'
p9
(lp10
I3
asS'pedge'
p11
F0.5
sS'r_ad'
p12
(lp13
F768.0
aF756.0
aF772.0
aF767.0
aF768.0
aF795.0
aF785.0
aF777.0
aF783.0
aF763.0
aF727.0
aF779.0
aF783.0
aF776.0
aF796.0
aF770.0
aF783.0
aF776.0
aF776.0
aF797.0
aF769.0
aF727.0
aF769.0
aF777.0
aF794.0
aF778.0
aF783.0
aF768.0
aF745.0
aF754.0
aF759.0
aF774.0
aF774.0
aF798.0
aF755.0
aF774.0
aF794.0
aF783.0
aF768.0
aF765.0
aF777.0
aF781.0
aF775.0
aF761.0
aF772.0
aF784.0
aF781.0
aF794.0
aF791.0
aF760.0
aF766.0
aF761.0
aF799.0
aF776.0
aF760.0
aF758.0
aF777.0
aF797.0
aF780.0
aF755.0
aF767.0
aF775.0
aF788.0
aF785.0
aF752.0
aF768.0
aF759.0
aF784.0
aF799.0
aF762.0
aF808.0
aF789.0
aF742.0
aF788.0
aF771.0
aF761.0
aF773.0
aF760.0
aF791.0
aF769.0
aF759.0
aF780.0
aF765.0
aF794.0
aF794.0
aF779.0
aF758.0
aF786.0
aF784.0
aF791.0
aF743.0
aF784.0
aF761.0
aF762.0
aF741.0
aF777.0
aF781.0
aF765.0
aF770.0
aF752.0
asS'v_nonad_rg'
p14
(lp15
I47
aI146
asS'nsim_ad'
p16
I1000
sS'git'
p17
S'fcb943d'
p18
sS'kratio'
p19
I10
sS'r_nonad_g'
p20
(lp21
F763.0
aF748.0
aF765.0
aF767.0
aF766.0
aF794.0
aF775.0
aF767.0
aF785.0
aF758.0
aF725.0
aF775.0
aF773.0
aF777.0
aF796.0
aF766.0
aF783.0
aF767.0
aF776.0
aF794.0
aF762.0
aF725.0
aF764.0
aF772.0
aF791.0
aF765.0
aF783.0
aF763.0
aF741.0
aF752.0
aF758.0
aF772.0
aF773.0
aF789.0
aF754.0
aF768.0
aF782.0
aF779.0
aF764.0
aF769.0
aF768.0
aF774.0
aF773.0
aF758.0
aF765.0
aF782.0
aF776.0
aF788.0
aF789.0
aF752.0
aF764.0
aF765.0
aF794.0
aF771.0
aF754.0
aF758.0
aF773.0
aF795.0
aF779.0
aF750.0
aF761.0
aF763.0
aF781.0
aF781.0
aF749.0
aF766.0
aF750.0
aF784.0
aF788.0
aF754.0
aF805.0
aF788.0
aF735.0
aF780.0
aF765.0
aF754.0
aF771.0
aF757.0
aF788.0
aF761.0
aF758.0
aF781.0
aF760.0
aF791.0
aF794.0
aF778.0
aF749.0
aF779.0
aF776.0
aF785.0
aF732.0
aF780.0
aF754.0
aF764.0
aF735.0
aF773.0
aF780.0
aF769.0
aF764.0
aF745.0
asS'nsim_nonad'
p22
I10000
sS't_h'
p23
I0
sS't_s'
p24
I24
sS'r_nonad_rg'
p25
(lp26
F761.0
aF746.0
aF763.0
aF765.0
aF764.0
aF792.0
aF775.0
aF765.0
aF783.0
aF756.0
aF723.0
aF773.0
aF771.0
aF775.0
aF794.0
aF764.0
aF781.0
aF765.0
aF774.0
aF792.0
aF760.0
aF727.0
aF762.0
aF770.0
aF789.0
aF763.0
aF781.0
aF761.0
aF739.0
aF756.0
aF756.0
aF770.0
aF771.0
aF787.0
aF752.0
aF766.0
aF780.0
aF777.0
aF762.0
aF767.0
aF766.0
aF772.0
aF771.0
aF756.0
aF763.0
aF783.0
aF774.0
aF786.0
aF787.0
aF750.0
aF762.0
aF763.0
aF792.0
aF769.0
aF752.0
aF756.0
aF771.0
aF793.0
aF777.0
aF750.0
aF763.0
aF761.0
aF779.0
aF779.0
aF747.0
aF764.0
aF748.0
aF782.0
aF786.0
aF752.0
aF803.0
aF786.0
aF733.0
aF778.0
aF763.0
aF752.0
aF769.0
aF755.0
aF786.0
aF759.0
aF756.0
aF779.0
aF758.0
aF789.0
aF792.0
aF776.0
aF747.0
aF777.0
aF774.0
aF783.0
aF730.0
aF778.0
aF752.0
aF762.0
aF733.0
aF771.0
aF778.0
aF767.0
aF762.0
aF743.0
asS'workers'
p27
I7
sS'gamma'
p28
F2.0
sS'vcount'
p29
I1000
s.