(dp0
S'niter'
p1
I100
sS'v_ad'
p2
(lp3
I34
aI38
aI49
aI44
aI45
aI27
aI21
aI38
aI37
aI45
aI48
aI44
aI40
aI40
aI31
aI37
aI39
aI33
aI37
aI43
aI34
aI32
aI37
aI55
aI33
aI47
aI47
aI33
aI52
aI28
aI42
aI42
aI43
aI54
aI35
aI34
aI46
aI30
aI30
aI40
aI23
aI45
aI40
aI40
aI32
aI41
aI41
aI38
aI33
aI48
aI28
aI28
aI38
aI39
aI27
aI40
aI26
aI51
aI43
aI42
aI37
aI36
aI49
aI27
aI39
aI31
aI24
aI30
aI23
aI31
aI35
aI40
aI34
aI42
aI33
aI28
aI24
aI34
aI31
aI34
aI39
aI45
aI24
aI27
aI30
aI37
aI24
aI34
aI41
aI29
aI25
aI31
aI33
aI50
aI36
aI32
aI27
aI35
aI47
aI35
asS'trans'
p4
F0.009741868016951951
sS'ecount'
p5
I3994
sS'name'
p6
S'B_A_1000_2'
p7
sS't_m'
p8
I35
sS'v_nonad_g'
p9
(lp10
I0
asS'pedge'
p11
F0.3
sS'r_ad'
p12
(lp13
F497.0
aF525.0
aF481.0
aF455.0
aF455.0
aF505.0
aF496.0
aF473.0
aF449.0
aF477.0
aF475.0
aF448.0
aF458.0
aF482.0
aF463.0
aF471.0
aF488.0
aF490.0
aF466.0
aF476.0
aF492.0
aF479.0
aF488.0
aF488.0
aF504.0
aF456.0
aF460.0
aF492.0
aF432.0
aF519.0
aF464.0
aF484.0
aF475.0
aF437.0
aF480.0
aF515.0
aF462.0
aF496.0
aF513.0
aF465.0
aF489.0
aF488.0
aF473.0
aF458.0
aF500.0
aF494.0
aF457.0
aF456.0
aF494.0
aF455.0
aF503.0
aF488.0
aF470.0
aF478.0
aF479.0
aF482.0
aF510.0
aF440.0
aF464.0
aF484.0
aF474.0
aF455.0
aF466.0
aF483.0
aF465.0
aF511.0
aF524.0
aF476.0
aF504.0
aF499.0
aF526.0
aF503.0
aF488.0
aF482.0
aF472.0
aF505.0
aF502.0
aF484.0
aF492.0
aF522.0
aF506.0
aF461.0
aF525.0
aF504.0
aF517.0
aF492.0
aF482.0
aF474.0
aF445.0
aF469.0
aF522.0
aF486.0
aF495.0
aF453.0
aF495.0
aF499.0
aF485.0
aF512.0
aF445.0
aF493.0
asS'v_nonad_rg'
p14
(lp15
I167
aI45
aI33
aI535
asS'nsim_ad'
p16
I1000
sS'git'
p17
S'fcb943d'
p18
sS'kratio'
p19
I10
sS'r_nonad_g'
p20
(lp21
F472.0
aF497.0
aF453.0
aF428.0
aF431.0
aF484.0
aF499.0
aF456.0
aF450.0
aF455.0
aF462.0
aF438.0
aF453.0
aF472.0
aF464.0
aF466.0
aF464.0
aF458.0
aF416.0
aF444.0
aF471.0
aF454.0
aF466.0
aF467.0
aF480.0
aF460.0
aF427.0
aF464.0
aF406.0
aF502.0
aF440.0
aF462.0
aF453.0
aF421.0
aF442.0
aF490.0
aF417.0
aF481.0
aF491.0
aF422.0
aF479.0
aF479.0
aF433.0
aF431.0
aF477.0
aF461.0
aF446.0
aF443.0
aF480.0
aF404.0
aF491.0
aF464.0
aF460.0
aF451.0
aF465.0
aF442.0
aF499.0
aF383.0
aF423.0
aF459.0
aF447.0
aF425.0
aF459.0
aF471.0
aF446.0
aF483.0
aF498.0
aF459.0
aF503.0
aF490.0
aF495.0
aF473.0
aF469.0
aF442.0
aF442.0
aF486.0
aF483.0
aF463.0
aF470.0
aF501.0
aF474.0
aF450.0
aF503.0
aF485.0
aF490.0
aF464.0
aF468.0
aF440.0
aF432.0
aF464.0
aF495.0
aF461.0
aF458.0
aF438.0
aF471.0
aF464.0
aF463.0
aF467.0
aF402.0
aF481.0
asS'nsim_nonad'
p22
I10000
sS't_h'
p23
I0
sS't_s'
p24
I59
sS'r_nonad_rg'
p25
(lp26
F468.0
aF496.0
aF454.0
aF424.0
aF434.0
aF483.0
aF493.0
aF452.0
aF451.0
aF450.0
aF462.0
aF433.0
aF454.0
aF467.0
aF460.0
aF464.0
aF462.0
aF453.0
aF412.0
aF453.0
aF470.0
aF448.0
aF462.0
aF464.0
aF474.0
aF454.0
aF423.0
aF464.0
aF415.0
aF499.0
aF436.0
aF457.0
aF451.0
aF415.0
aF472.0
aF488.0
aF412.0
aF475.0
aF487.0
aF416.0
aF478.0
aF478.0
aF429.0
aF446.0
aF473.0
aF459.0
aF441.0
aF440.0
aF480.0
aF398.0
aF490.0
aF459.0
aF459.0
aF452.0
aF460.0
aF440.0
aF494.0
aF380.0
aF418.0
aF454.0
aF443.0
aF419.0
aF454.0
aF466.0
aF444.0
aF480.0
aF493.0
aF453.0
aF497.0
aF485.0
aF493.0
aF467.0
aF466.0
aF439.0
aF436.0
aF480.0
aF477.0
aF457.0
aF464.0
aF497.0
aF472.0
aF446.0
aF508.0
aF480.0
aF502.0
aF462.0
aF462.0
aF442.0
aF427.0
aF458.0
aF489.0
aF459.0
aF452.0
aF443.0
aF466.0
aF462.0
aF460.0
aF464.0
aF397.0
aF475.0
asS'workers'
p27
I7
sS'gamma'
p28
F2.0
sS'vcount'
p29
I1000
s.