(dp0
S'niter'
p1
I100
sS'v_ad'
p2
(lp3
I64
aI77
aI63
aI70
aI42
aI56
aI73
aI77
aI51
aI49
aI54
aI54
aI50
aI33
aI74
aI48
aI57
aI43
aI69
aI63
aI38
aI54
aI53
aI48
aI59
aI47
aI45
aI60
aI61
aI71
aI44
aI42
aI41
aI54
aI49
aI68
aI59
aI53
aI41
aI52
aI52
aI57
aI53
aI62
aI51
aI68
aI71
aI65
aI46
aI43
aI67
aI50
aI48
aI61
aI74
aI67
aI65
aI59
aI62
aI61
aI62
aI44
aI61
aI68
aI52
aI62
aI59
aI52
aI62
aI49
aI46
aI60
aI49
aI57
aI65
aI49
aI84
aI60
aI54
aI57
aI54
aI58
aI59
aI61
aI53
aI47
aI64
aI56
aI42
aI58
aI63
aI58
aI64
aI58
aI42
aI52
aI64
aI67
aI56
aI42
asS'trans'
p4
F0.009741868016951951
sS'ecount'
p5
I3994
sS'name'
p6
S'B_A_1000_2'
p7
sS't_m'
p8
I50
sS'v_nonad_g'
p9
(lp10
I0
aI1
aI33
aI12
aI24
aI6
aI10
aI9
aI25
aI71
aI135
aI114
aI7
aI29
aI48
aI16
aI77
aI28
aI122
aI109
aI50
aI105
aI26
aI429
aI52
aI57
aI5
aI242
aI92
aI66
asS'pedge'
p11
F0.15
sS'r_ad'
p12
(lp13
F160.0
aF138.0
aF169.0
aF169.0
aF193.0
aF174.0
aF161.0
aF157.0
aF182.0
aF187.0
aF190.0
aF201.0
aF184.0
aF213.0
aF142.0
aF189.0
aF203.0
aF212.0
aF138.0
aF190.0
aF193.0
aF200.0
aF207.0
aF198.0
aF183.0
aF187.0
aF183.0
aF164.0
aF154.0
aF156.0
aF182.0
aF205.0
aF206.0
aF216.0
aF183.0
aF157.0
aF191.0
aF208.0
aF207.0
aF185.0
aF174.0
aF168.0
aF175.0
aF196.0
aF190.0
aF168.0
aF150.0
aF189.0
aF202.0
aF211.0
aF165.0
aF193.0
aF178.0
aF183.0
aF144.0
aF191.0
aF163.0
aF180.0
aF170.0
aF181.0
aF153.0
aF181.0
aF137.0
aF187.0
aF172.0
aF179.0
aF184.0
aF192.0
aF192.0
aF188.0
aF222.0
aF193.0
aF188.0
aF183.0
aF196.0
aF195.0
aF146.0
aF198.0
aF162.0
aF182.0
aF172.0
aF176.0
aF209.0
aF191.0
aF168.0
aF204.0
aF170.0
aF192.0
aF206.0
aF175.0
aF172.0
aF174.0
aF186.0
aF189.0
aF196.0
aF192.0
aF151.0
aF167.0
aF173.0
aF204.0
asS'v_nonad_rg'
p14
(lp15
I19
aI242
aI12
aI52
aI135
aI59
aI106
aI124
aI189
aI11
aI31
aI426
aI143
aI16
aI239
aI380
aI439
aI160
aI57
aI173
aI58
aI447
aI93
aI496
aI3
aI9
aI21
aI142
aI152
aI29
aI69
aI7
aI109
aI429
aI287
aI234
aI14
aI80
aI122
aI105
aI30
aI5
aI40
aI114
aI48
aI4
aI33
aI77
asS'nsim_ad'
p16
I1000
sS'git'
p17
S'fcb943d'
p18
sS'kratio'
p19
I10
sS'r_nonad_g'
p20
(lp21
F140.0
aF133.0
aF158.0
aF130.0
aF158.0
aF158.0
aF166.0
aF157.0
aF142.0
aF154.0
aF188.0
aF176.0
aF153.0
aF169.0
aF133.0
aF159.0
aF189.0
aF164.0
aF138.0
aF176.0
aF160.0
aF175.0
aF178.0
aF175.0
aF156.0
aF149.0
aF152.0
aF149.0
aF128.0
aF151.0
aF132.0
aF160.0
aF165.0
aF189.0
aF154.0
aF142.0
aF182.0
aF179.0
aF173.0
aF151.0
aF159.0
aF137.0
aF152.0
aF185.0
aF153.0
aF160.0
aF139.0
aF187.0
aF159.0
aF173.0
aF147.0
aF157.0
aF161.0
aF156.0
aF140.0
aF178.0
aF158.0
aF157.0
aF139.0
aF173.0
aF149.0
aF150.0
aF106.0
aF184.0
aF152.0
aF154.0
aF159.0
aF174.0
aF150.0
aF167.0
aF173.0
aF174.0
aF167.0
aF159.0
aF187.0
aF164.0
aF151.0
aF190.0
aF128.0
aF164.0
aF166.0
aF154.0
aF190.0
aF188.0
aF152.0
aF185.0
aF158.0
aF172.0
aF169.0
aF163.0
aF158.0
aF154.0
aF156.0
aF167.0
aF156.0
aF164.0
aF140.0
aF157.0
aF148.0
aF174.0
asS'nsim_nonad'
p22
I10000
sS't_h'
p23
I0
sS't_s'
p24
I32
sS'r_nonad_rg'
p25
(lp26
F104.0
aF125.0
aF139.0
aF141.0
aF169.0
aF149.0
aF145.0
aF151.0
aF128.0
aF167.0
aF158.0
aF177.0
aF167.0
aF163.0
aF110.0
aF147.0
aF180.0
aF142.0
aF129.0
aF175.0
aF150.0
aF156.0
aF156.0
aF154.0
aF139.0
aF157.0
aF135.0
aF133.0
aF125.0
aF136.0
aF139.0
aF163.0
aF159.0
aF145.0
aF147.0
aF123.0
aF148.0
aF164.0
aF168.0
aF146.0
aF136.0
aF141.0
aF148.0
aF153.0
aF154.0
aF142.0
aF144.0
aF169.0
aF146.0
aF163.0
aF116.0
aF164.0
aF149.0
aF153.0
aF122.0
aF147.0
aF161.0
aF149.0
aF146.0
aF164.0
aF123.0
aF135.0
aF110.0
aF175.0
aF142.0
aF146.0
aF155.0
aF164.0
aF167.0
aF152.0
aF174.0
aF142.0
aF174.0
aF154.0
aF165.0
aF163.0
aF89.0
aF146.0
aF122.0
aF157.0
aF156.0
aF141.0
aF187.0
aF178.0
aF135.0
aF177.0
aF145.0
aF168.0
aF165.0
aF150.0
aF142.0
aF155.0
aF164.0
aF160.0
aF148.0
aF151.0
aF129.0
aF135.0
aF151.0
aF181.0
asS'workers'
p27
I7
sS'gamma'
p28
F2.0
sS'vcount'
p29
I1000
s.