(dp0
S'niter'
p1
I100
sS'v_ad'
p2
(lp3
I17
aI22
aI14
aI21
aI22
aI14
aI17
aI18
aI21
aI23
aI16
aI21
aI18
aI17
aI16
aI15
aI24
aI26
aI16
aI15
aI28
aI43
aI16
aI19
aI20
aI18
aI20
aI13
aI28
aI21
aI19
aI26
aI17
aI24
aI30
aI27
aI10
aI21
aI28
aI19
aI20
aI29
aI22
aI22
aI16
aI25
aI24
aI28
aI27
aI22
aI19
aI27
aI19
aI21
aI25
aI20
aI18
aI26
aI16
aI38
aI20
aI17
aI22
aI19
aI26
aI19
aI20
aI20
aI28
aI20
aI30
aI25
aI23
aI16
aI20
aI21
aI21
aI14
aI23
aI11
aI16
aI33
aI12
aI20
aI24
aI12
aI19
aI23
aI19
aI30
aI24
aI20
aI13
aI20
aI21
aI14
aI25
aI20
aI19
aI24
asS'trans'
p4
F0.009741868016951951
sS'ecount'
p5
I3994
sS'name'
p6
S'B_A_1000_2'
p7
sS't_m'
p8
I41
sS'v_nonad_g'
p9
(lp10
I33
asS'pedge'
p11
F0.4
sS'r_ad'
p12
(lp13
F651.0
aF635.0
aF639.0
aF636.0
aF666.0
aF689.0
aF640.0
aF646.0
aF630.0
aF668.0
aF672.0
aF645.0
aF640.0
aF650.0
aF657.0
aF651.0
aF643.0
aF625.0
aF658.0
aF658.0
aF615.0
aF581.0
aF656.0
aF661.0
aF629.0
aF666.0
aF649.0
aF689.0
aF622.0
aF639.0
aF647.0
aF638.0
aF639.0
aF646.0
aF637.0
aF633.0
aF661.0
aF635.0
aF615.0
aF639.0
aF650.0
aF629.0
aF638.0
aF636.0
aF674.0
aF622.0
aF615.0
aF643.0
aF637.0
aF646.0
aF669.0
aF617.0
aF644.0
aF640.0
aF661.0
aF640.0
aF647.0
aF648.0
aF660.0
aF622.0
aF659.0
aF667.0
aF628.0
aF641.0
aF623.0
aF660.0
aF643.0
aF660.0
aF614.0
aF642.0
aF649.0
aF656.0
aF633.0
aF678.0
aF661.0
aF667.0
aF648.0
aF662.0
aF664.0
aF663.0
aF654.0
aF629.0
aF650.0
aF661.0
aF631.0
aF696.0
aF673.0
aF638.0
aF663.0
aF646.0
aF654.0
aF648.0
aF644.0
aF657.0
aF635.0
aF657.0
aF625.0
aF671.0
aF651.0
aF661.0
asS'v_nonad_rg'
p14
(lp15
I65
aI120
aI9
asS'nsim_ad'
p16
I1000
sS'git'
p17
S'fcb943d'
p18
sS'kratio'
p19
I10
sS'r_nonad_g'
p20
(lp21
F649.0
aF629.0
aF625.0
aF630.0
aF643.0
aF682.0
aF640.0
aF632.0
aF619.0
aF661.0
aF672.0
aF623.0
aF636.0
aF630.0
aF652.0
aF654.0
aF627.0
aF616.0
aF647.0
aF652.0
aF609.0
aF588.0
aF650.0
aF640.0
aF621.0
aF664.0
aF637.0
aF680.0
aF595.0
aF623.0
aF638.0
aF636.0
aF629.0
aF640.0
aF630.0
aF621.0
aF658.0
aF626.0
aF607.0
aF623.0
aF621.0
aF623.0
aF621.0
aF631.0
aF659.0
aF607.0
aF617.0
aF644.0
aF630.0
aF626.0
aF666.0
aF621.0
aF609.0
aF627.0
aF648.0
aF639.0
aF641.0
aF629.0
aF653.0
aF604.0
aF644.0
aF649.0
aF616.0
aF634.0
aF602.0
aF649.0
aF629.0
aF656.0
aF598.0
aF622.0
aF632.0
aF637.0
aF617.0
aF673.0
aF645.0
aF660.0
aF633.0
aF660.0
aF651.0
aF659.0
aF639.0
aF614.0
aF644.0
aF661.0
aF618.0
aF691.0
aF659.0
aF632.0
aF659.0
aF630.0
aF642.0
aF643.0
aF643.0
aF648.0
aF626.0
aF645.0
aF623.0
aF655.0
aF646.0
aF641.0
asS'nsim_nonad'
p22
I10000
sS't_h'
p23
I0
sS't_s'
p24
I41
sS'r_nonad_rg'
p25
(lp26
F650.0
aF625.0
aF621.0
aF626.0
aF648.0
aF678.0
aF636.0
aF628.0
aF615.0
aF657.0
aF668.0
aF619.0
aF632.0
aF626.0
aF648.0
aF650.0
aF623.0
aF614.0
aF643.0
aF648.0
aF608.0
aF584.0
aF646.0
aF639.0
aF617.0
aF660.0
aF634.0
aF676.0
aF591.0
aF622.0
aF637.0
aF632.0
aF625.0
aF636.0
aF626.0
aF617.0
aF654.0
aF622.0
aF604.0
aF619.0
aF620.0
aF619.0
aF617.0
aF630.0
aF657.0
aF603.0
aF614.0
aF640.0
aF627.0
aF622.0
aF662.0
aF617.0
aF605.0
aF623.0
aF644.0
aF635.0
aF637.0
aF625.0
aF649.0
aF600.0
aF640.0
aF645.0
aF612.0
aF633.0
aF598.0
aF645.0
aF627.0
aF658.0
aF594.0
aF618.0
aF628.0
aF633.0
aF613.0
aF669.0
aF642.0
aF656.0
aF629.0
aF656.0
aF647.0
aF655.0
aF635.0
aF615.0
aF640.0
aF657.0
aF622.0
aF687.0
aF657.0
aF628.0
aF660.0
aF628.0
aF638.0
aF639.0
aF639.0
aF644.0
aF622.0
aF641.0
aF619.0
aF651.0
aF642.0
aF637.0
asS'workers'
p27
I7
sS'gamma'
p28
F2.0
sS'vcount'
p29
I1000
s.