(dp0
S'niter'
p1
I100
sS'v_ad'
p2
(lp3
I4
aI3
aI1
aI7
aI6
aI8
aI8
aI6
aI8
aI3
aI6
aI9
aI7
aI7
aI11
aI5
aI7
aI2
aI6
aI5
aI6
aI5
aI5
aI8
aI7
aI6
aI4
aI9
aI6
aI2
aI4
aI8
aI9
aI4
aI4
aI9
aI4
aI10
aI6
aI6
aI11
aI6
aI5
aI3
aI4
aI8
aI4
aI5
aI8
aI9
aI8
aI5
aI2
aI10
aI5
aI9
aI8
aI8
aI9
aI8
aI4
aI3
aI11
aI10
aI7
aI5
aI2
aI3
aI6
aI6
aI2
aI3
aI5
aI3
aI4
aI3
aI4
aI7
aI4
aI5
aI9
aI4
aI7
aI7
aI8
aI2
aI5
aI6
aI2
aI4
aI5
aI10
aI6
aI5
aI4
aI9
aI6
aI6
aI5
aI6
asS'trans'
p4
F0.009741868016951951
sS'ecount'
p5
I3994
sS'name'
p6
S'B_A_1000_2'
p7
sS't_m'
p8
I3
sS'v_nonad_g'
p9
(lp10
I114
asS'pedge'
p11
F0.6
sS'r_ad'
p12
(lp13
F874.0
aF877.0
aF873.0
aF871.0
aF850.0
aF880.0
aF866.0
aF862.0
aF861.0
aF872.0
aF871.0
aF871.0
aF855.0
aF882.0
aF866.0
aF861.0
aF851.0
aF868.0
aF886.0
aF873.0
aF855.0
aF856.0
aF871.0
aF870.0
aF872.0
aF860.0
aF876.0
aF859.0
aF869.0
aF878.0
aF873.0
aF857.0
aF870.0
aF865.0
aF889.0
aF870.0
aF863.0
aF849.0
aF835.0
aF868.0
aF854.0
aF850.0
aF876.0
aF870.0
aF866.0
aF877.0
aF873.0
aF861.0
aF848.0
aF883.0
aF870.0
aF875.0
aF872.0
aF857.0
aF879.0
aF871.0
aF861.0
aF855.0
aF856.0
aF866.0
aF872.0
aF885.0
aF844.0
aF873.0
aF866.0
aF877.0
aF884.0
aF870.0
aF870.0
aF876.0
aF866.0
aF880.0
aF859.0
aF880.0
aF881.0
aF853.0
aF869.0
aF856.0
aF852.0
aF839.0
aF863.0
aF858.0
aF870.0
aF865.0
aF867.0
aF879.0
aF878.0
aF869.0
aF887.0
aF877.0
aF869.0
aF860.0
aF873.0
aF869.0
aF868.0
aF860.0
aF876.0
aF871.0
aF857.0
aF884.0
asS'v_nonad_rg'
p14
(lp15
I129
aI77
asS'nsim_ad'
p16
I1000
sS'git'
p17
S'fcb943d'
p18
sS'kratio'
p19
I10
sS'r_nonad_g'
p20
(lp21
F870.0
aF875.0
aF873.0
aF870.0
aF846.0
aF877.0
aF861.0
aF860.0
aF858.0
aF873.0
aF865.0
aF864.0
aF854.0
aF880.0
aF866.0
aF857.0
aF850.0
aF868.0
aF885.0
aF872.0
aF853.0
aF854.0
aF870.0
aF869.0
aF872.0
aF860.0
aF872.0
aF857.0
aF868.0
aF877.0
aF871.0
aF855.0
aF864.0
aF865.0
aF888.0
aF863.0
aF865.0
aF847.0
aF833.0
aF868.0
aF855.0
aF847.0
aF876.0
aF870.0
aF863.0
aF874.0
aF869.0
aF859.0
aF849.0
aF879.0
aF864.0
aF872.0
aF871.0
aF858.0
aF877.0
aF868.0
aF857.0
aF851.0
aF852.0
aF868.0
aF871.0
aF883.0
aF837.0
aF869.0
aF864.0
aF871.0
aF883.0
aF869.0
aF867.0
aF878.0
aF865.0
aF877.0
aF856.0
aF880.0
aF879.0
aF850.0
aF868.0
aF854.0
aF853.0
aF837.0
aF859.0
aF858.0
aF869.0
aF864.0
aF861.0
aF879.0
aF878.0
aF865.0
aF885.0
aF879.0
aF867.0
aF860.0
aF868.0
aF866.0
aF866.0
aF850.0
aF876.0
aF868.0
aF854.0
aF878.0
asS'nsim_nonad'
p22
I10000
sS't_h'
p23
I1
sS't_s'
p24
I57
sS'r_nonad_rg'
p25
(lp26
F868.0
aF873.0
aF871.0
aF868.0
aF844.0
aF875.0
aF859.0
aF858.0
aF856.0
aF871.0
aF863.0
aF862.0
aF852.0
aF878.0
aF864.0
aF855.0
aF848.0
aF866.0
aF883.0
aF870.0
aF851.0
aF852.0
aF868.0
aF867.0
aF870.0
aF858.0
aF870.0
aF855.0
aF866.0
aF875.0
aF869.0
aF853.0
aF862.0
aF863.0
aF886.0
aF861.0
aF863.0
aF845.0
aF831.0
aF866.0
aF853.0
aF845.0
aF874.0
aF868.0
aF861.0
aF872.0
aF867.0
aF857.0
aF847.0
aF877.0
aF862.0
aF870.0
aF869.0
aF856.0
aF875.0
aF866.0
aF855.0
aF849.0
aF850.0
aF866.0
aF869.0
aF881.0
aF835.0
aF867.0
aF862.0
aF869.0
aF881.0
aF867.0
aF865.0
aF876.0
aF863.0
aF875.0
aF854.0
aF878.0
aF877.0
aF848.0
aF866.0
aF852.0
aF851.0
aF835.0
aF857.0
aF856.0
aF867.0
aF862.0
aF859.0
aF877.0
aF876.0
aF863.0
aF883.0
aF877.0
aF865.0
aF858.0
aF866.0
aF864.0
aF864.0
aF854.0
aF874.0
aF866.0
aF852.0
aF876.0
asS'workers'
p27
I7
sS'gamma'
p28
F2.0
sS'vcount'
p29
I1000
s.