(dp0
S'niter'
p1
I100
sS'v_ad'
p2
(lp3
I52
aI40
aI45
aI42
aI68
aI61
aI43
aI60
aI66
aI40
aI66
aI61
aI65
aI37
aI51
aI50
aI49
aI36
aI57
aI47
aI48
aI49
aI39
aI42
aI49
aI52
aI39
aI56
aI50
aI69
aI58
aI47
aI67
aI54
aI71
aI63
aI53
aI44
aI43
aI37
aI43
aI53
aI37
aI57
aI59
aI62
aI45
aI48
aI49
aI54
aI45
aI58
aI36
aI56
aI46
aI38
aI48
aI51
aI52
aI44
aI53
aI45
aI63
aI48
aI50
aI49
aI47
aI53
aI78
aI55
aI57
aI39
aI53
aI34
aI45
aI62
aI45
aI52
aI55
aI46
aI56
aI57
aI64
aI58
aI45
aI62
aI60
aI48
aI38
aI53
aI44
aI52
aI63
aI43
aI57
aI57
aI50
aI50
aI43
aI58
asS'trans'
p4
F0.009741868016951951
sS'ecount'
p5
I3994
sS'name'
p6
S'B_A_1000_2'
p7
sS't_m'
p8
I40
sS'v_nonad_g'
p9
(lp10
I0
aI33
aI48
aI109
aI32
aI25
aI105
aI135
aI122
aI77
aI50
aI429
aI52
aI108
aI28
aI114
aI80
aI106
aI144
aI92
aI29
aI310
asS'pedge'
p11
F0.2
sS'r_ad'
p12
(lp13
F284.0
aF297.0
aF282.0
aF320.0
aF252.0
aF273.0
aF296.0
aF288.0
aF268.0
aF299.0
aF256.0
aF268.0
aF277.0
aF324.0
aF316.0
aF288.0
aF296.0
aF334.0
aF284.0
aF289.0
aF261.0
aF275.0
aF334.0
aF332.0
aF281.0
aF287.0
aF302.0
aF276.0
aF301.0
aF250.0
aF283.0
aF276.0
aF256.0
aF274.0
aF230.0
aF266.0
aF271.0
aF304.0
aF288.0
aF290.0
aF298.0
aF283.0
aF345.0
aF303.0
aF285.0
aF267.0
aF286.0
aF286.0
aF274.0
aF263.0
aF294.0
aF276.0
aF303.0
aF250.0
aF298.0
aF305.0
aF272.0
aF280.0
aF275.0
aF274.0
aF282.0
aF308.0
aF246.0
aF264.0
aF244.0
aF292.0
aF281.0
aF290.0
aF234.0
aF281.0
aF286.0
aF290.0
aF288.0
aF298.0
aF306.0
aF261.0
aF272.0
aF271.0
aF271.0
aF295.0
aF292.0
aF277.0
aF253.0
aF300.0
aF303.0
aF261.0
aF279.0
aF285.0
aF281.0
aF281.0
aF298.0
aF302.0
aF260.0
aF274.0
aF288.0
aF283.0
aF282.0
aF289.0
aF311.0
aF261.0
asS'v_nonad_rg'
p14
(lp15
I168
aI173
aI33
aI242
aI114
aI124
aI239
aI52
aI496
aI129
aI160
aI56
aI232
aI16
aI144
aI277
aI446
aI310
aI29
aI122
aI287
aI137
aI109
aI142
aI105
aI108
aI466
aI92
aI535
aI135
aI48
aI77
aI80
asS'nsim_ad'
p16
I1000
sS'git'
p17
S'fcb943d'
p18
sS'kratio'
p19
I10
sS'r_nonad_g'
p20
(lp21
F255.0
aF259.0
aF228.0
aF279.0
aF260.0
aF236.0
aF290.0
aF245.0
aF214.0
aF273.0
aF232.0
aF242.0
aF239.0
aF288.0
aF292.0
aF262.0
aF264.0
aF290.0
aF271.0
aF263.0
aF224.0
aF246.0
aF286.0
aF289.0
aF259.0
aF277.0
aF260.0
aF250.0
aF276.0
aF201.0
aF220.0
aF254.0
aF233.0
aF204.0
aF223.0
aF216.0
aF220.0
aF236.0
aF245.0
aF263.0
aF252.0
aF242.0
aF299.0
aF281.0
aF220.0
aF250.0
aF259.0
aF238.0
aF215.0
aF227.0
aF267.0
aF270.0
aF251.0
aF223.0
aF253.0
aF274.0
aF219.0
aF240.0
aF260.0
aF232.0
aF258.0
aF279.0
aF224.0
aF217.0
aF204.0
aF264.0
aF228.0
aF248.0
aF230.0
aF238.0
aF252.0
aF245.0
aF238.0
aF256.0
aF269.0
aF240.0
aF236.0
aF257.0
aF194.0
aF245.0
aF263.0
aF249.0
aF228.0
aF268.0
aF242.0
aF230.0
aF237.0
aF254.0
aF220.0
aF260.0
aF258.0
aF277.0
aF240.0
aF233.0
aF282.0
aF252.0
aF249.0
aF264.0
aF277.0
aF249.0
asS'nsim_nonad'
p22
I10000
sS't_h'
p23
I0
sS't_s'
p24
I38
sS'r_nonad_rg'
p25
(lp26
F255.0
aF264.0
aF245.0
aF269.0
aF254.0
aF219.0
aF268.0
aF228.0
aF213.0
aF249.0
aF223.0
aF219.0
aF234.0
aF282.0
aF283.0
aF247.0
aF248.0
aF298.0
aF269.0
aF244.0
aF234.0
aF246.0
aF271.0
aF293.0
aF263.0
aF258.0
aF260.0
aF244.0
aF271.0
aF204.0
aF228.0
aF250.0
aF215.0
aF219.0
aF217.0
aF217.0
aF225.0
aF269.0
aF261.0
aF267.0
aF262.0
aF252.0
aF294.0
aF250.0
aF218.0
aF241.0
aF262.0
aF258.0
aF207.0
aF232.0
aF258.0
aF251.0
aF252.0
aF215.0
aF268.0
aF271.0
aF225.0
aF228.0
aF261.0
aF223.0
aF257.0
aF278.0
aF229.0
aF232.0
aF206.0
aF270.0
aF229.0
aF241.0
aF220.0
aF235.0
aF258.0
aF241.0
aF264.0
aF242.0
aF250.0
aF261.0
aF237.0
aF254.0
aF204.0
aF259.0
aF269.0
aF252.0
aF207.0
aF276.0
aF251.0
aF224.0
aF226.0
aF224.0
aF247.0
aF255.0
aF267.0
aF270.0
aF236.0
aF219.0
aF263.0
aF244.0
aF242.0
aF258.0
aF293.0
aF241.0
asS'workers'
p27
I7
sS'gamma'
p28
F2.0
sS'vcount'
p29
I1000
s.