(dp0
S'niter'
p1
I100
sS'v_ad'
p2
(lp3
I64
aI50
aI50
aI61
aI47
aI43
aI55
aI57
aI45
aI62
aI41
aI53
aI68
aI52
aI54
aI55
aI56
aI60
aI45
aI49
aI43
aI49
aI48
aI53
aI51
aI52
aI44
aI67
aI52
aI44
aI46
aI52
aI61
aI93
aI36
aI58
aI45
aI60
aI40
aI62
aI51
aI36
aI68
aI50
aI43
aI49
aI40
aI50
aI53
aI52
aI42
aI37
aI46
aI69
aI87
aI54
aI43
aI50
aI42
aI56
aI67
aI46
aI47
aI39
aI57
aI34
aI58
aI35
aI49
aI63
aI43
aI53
aI66
aI41
aI62
aI75
aI58
aI34
aI53
aI41
aI47
aI48
aI56
aI37
aI43
aI60
aI49
aI54
aI53
aI57
aI63
aI63
aI51
aI50
aI63
aI53
aI43
aI54
aI45
aI75
asS'trans'
p4
F0.009741868016951951
sS'ecount'
p5
I3994
sS'name'
p6
S'B_A_1000_2'
p7
sS't_m'
p8
I57
sS'v_nonad_g'
p9
(lp10
I0
aI1
aI2
aI33
aI12
aI24
aI6
aI10
aI9
aI8
aI7
aI15
aI71
aI29
aI16
aI135
aI105
aI122
aI48
aI77
aI26
aI32
aI5
aI25
aI114
aI109
aI429
asS'pedge'
p11
F0.1
sS'r_ad'
p12
(lp13
F70.0
aF99.0
aF91.0
aF83.0
aF80.0
aF91.0
aF70.0
aF105.0
aF80.0
aF68.0
aF114.0
aF68.0
aF65.0
aF83.0
aF87.0
aF93.0
aF87.0
aF72.0
aF104.0
aF124.0
aF96.0
aF109.0
aF94.0
aF102.0
aF85.0
aF74.0
aF91.0
aF80.0
aF81.0
aF121.0
aF68.0
aF80.0
aF87.0
aF37.0
aF122.0
aF82.0
aF116.0
aF77.0
aF119.0
aF87.0
aF93.0
aF106.0
aF69.0
aF102.0
aF99.0
aF88.0
aF121.0
aF93.0
aF76.0
aF75.0
aF89.0
aF106.0
aF89.0
aF71.0
aF71.0
aF66.0
aF96.0
aF74.0
aF117.0
aF88.0
aF76.0
aF101.0
aF86.0
aF112.0
aF77.0
aF121.0
aF90.0
aF120.0
aF105.0
aF58.0
aF111.0
aF76.0
aF67.0
aF121.0
aF83.0
aF71.0
aF89.0
aF113.0
aF103.0
aF106.0
aF88.0
aF98.0
aF99.0
aF116.0
aF101.0
aF85.0
aF101.0
aF106.0
aF101.0
aF75.0
aF70.0
aF71.0
aF75.0
aF115.0
aF52.0
aF111.0
aF84.0
aF73.0
aF111.0
aF54.0
asS'v_nonad_rg'
p14
(lp15
I622
aI183
aI33
aI147
aI31
aI49
aI38
aI65
aI559
aI61
aI59
aI89
aI11
aI5
aI166
aI724
aI167
aI191
aI30
aI242
aI115
aI19
aI111
aI177
aI1
aI25
aI429
aI106
aI17
aI8
aI90
aI109
aI24
aI105
aI21
aI26
aI12
aI40
aI2
aI14
aI48
aI71
aI28
aI16
aI32
aI20
aI7
aI144
aI10
aI3
aI29
aI9
asS'nsim_ad'
p16
I1000
sS'git'
p17
S'fcb943d'
p18
sS'kratio'
p19
I10
sS'r_nonad_g'
p20
(lp21
F78.0
aF97.0
aF79.0
aF76.0
aF74.0
aF90.0
aF66.0
aF112.0
aF70.0
aF65.0
aF99.0
aF65.0
aF69.0
aF75.0
aF77.0
aF92.0
aF76.0
aF78.0
aF80.0
aF122.0
aF84.0
aF97.0
aF78.0
aF108.0
aF80.0
aF65.0
aF79.0
aF101.0
aF79.0
aF100.0
aF63.0
aF66.0
aF95.0
aF83.0
aF99.0
aF89.0
aF120.0
aF84.0
aF98.0
aF90.0
aF83.0
aF92.0
aF87.0
aF87.0
aF86.0
aF67.0
aF99.0
aF89.0
aF73.0
aF59.0
aF75.0
aF87.0
aF82.0
aF91.0
aF112.0
aF61.0
aF88.0
aF81.0
aF94.0
aF89.0
aF90.0
aF91.0
aF80.0
aF94.0
aF85.0
aF94.0
aF96.0
aF95.0
aF92.0
aF63.0
aF101.0
aF74.0
aF65.0
aF117.0
aF88.0
aF104.0
aF99.0
aF95.0
aF96.0
aF84.0
aF78.0
aF89.0
aF92.0
aF98.0
aF92.0
aF95.0
aF93.0
aF112.0
aF97.0
aF84.0
aF66.0
aF74.0
aF74.0
aF96.0
aF50.0
aF102.0
aF73.0
aF71.0
aF98.0
aF71.0
asS'nsim_nonad'
p22
I10000
sS't_h'
p23
I0
sS't_s'
p24
I4
sS'r_nonad_rg'
p25
(lp26
F73.0
aF89.0
aF58.0
aF72.0
aF58.0
aF72.0
aF57.0
aF94.0
aF56.0
aF60.0
aF67.0
aF49.0
aF57.0
aF50.0
aF68.0
aF80.0
aF64.0
aF66.0
aF81.0
aF106.0
aF65.0
aF87.0
aF68.0
aF88.0
aF62.0
aF54.0
aF64.0
aF71.0
aF49.0
aF96.0
aF46.0
aF47.0
aF52.0
aF50.0
aF85.0
aF59.0
aF89.0
aF69.0
aF81.0
aF75.0
aF68.0
aF72.0
aF60.0
aF79.0
aF54.0
aF60.0
aF73.0
aF69.0
aF66.0
aF49.0
aF61.0
aF80.0
aF71.0
aF75.0
aF91.0
aF37.0
aF68.0
aF56.0
aF92.0
aF65.0
aF84.0
aF77.0
aF64.0
aF69.0
aF70.0
aF73.0
aF79.0
aF65.0
aF75.0
aF50.0
aF89.0
aF51.0
aF31.0
aF78.0
aF63.0
aF84.0
aF77.0
aF74.0
aF65.0
aF71.0
aF58.0
aF66.0
aF76.0
aF60.0
aF69.0
aF66.0
aF75.0
aF86.0
aF86.0
aF55.0
aF48.0
aF54.0
aF63.0
aF96.0
aF54.0
aF79.0
aF56.0
aF55.0
aF70.0
aF61.0
asS'workers'
p27
I7
sS'gamma'
p28
F2.0
sS'vcount'
p29
I1000
s.