(dp0
S'niter'
p1
I100
sS'v_ad'
p2
(lp3
I50
aI50
aI50
aI50
aI50
aI50
aI50
aI50
aI50
aI50
aI50
aI50
aI50
aI50
aI50
aI50
aI50
aI50
aI50
aI50
aI50
aI50
aI50
aI50
aI50
aI50
aI50
aI50
aI50
aI50
aI50
aI50
aI50
aI50
aI50
aI50
aI50
aI50
aI50
aI50
aI50
aI50
aI50
aI50
aI50
aI50
aI50
aI50
aI50
aI50
aI50
aI50
aI50
aI50
aI50
aI50
aI50
aI50
aI50
aI50
aI50
aI50
aI50
aI50
aI50
aI50
aI50
aI50
aI50
aI50
aI50
aI50
aI50
aI50
aI50
aI50
aI50
aI50
aI50
aI50
aI50
aI50
aI50
aI50
aI50
aI50
aI50
aI50
aI50
aI50
aI50
aI50
aI50
aI50
aI50
aI50
aI50
aI50
aI50
aI50
asS'trans'
p4
F0.8047941557912676
sS'ecount'
p5
I13033
sS'name'
p6
S'SNAP_GR_1000'
p7
sS't_m'
p8
I12
sS'v_nonad_g'
p9
(lp10
I0
aI61
aI110
aI127
aI75
aI212
aI397
aI177
aI136
aI305
aI40
aI239
aI129
aI130
aI153
aI144
aI299
aI174
aI168
aI389
aI441
aI41
aI306
aI380
aI171
aI340
aI143
aI347
aI383
aI437
aI253
aI243
aI497
aI439
aI603
aI162
aI163
aI207
aI221
aI418
aI103
aI444
aI289
aI199
aI242
aI187
aI288
aI82
aI292
aI857
asS'pedge'
p11
F0.1
sS'r_ad'
p12
(lp13
F386.0
aF384.0
aF358.0
aF374.0
aF384.0
aF392.0
aF364.0
aF393.0
aF350.0
aF393.0
aF411.0
aF407.0
aF344.0
aF390.0
aF397.0
aF376.0
aF386.0
aF385.0
aF391.0
aF401.0
aF378.0
aF352.0
aF375.0
aF399.0
aF365.0
aF419.0
aF416.0
aF368.0
aF390.0
aF361.0
aF416.0
aF347.0
aF374.0
aF371.0
aF352.0
aF426.0
aF371.0
aF382.0
aF409.0
aF413.0
aF383.0
aF403.0
aF385.0
aF384.0
aF392.0
aF437.0
aF412.0
aF407.0
aF377.0
aF403.0
aF415.0
aF384.0
aF423.0
aF394.0
aF393.0
aF376.0
aF354.0
aF394.0
aF375.0
aF387.0
aF349.0
aF388.0
aF388.0
aF381.0
aF376.0
aF371.0
aF381.0
aF426.0
aF395.0
aF381.0
aF417.0
aF384.0
aF386.0
aF377.0
aF396.0
aF387.0
aF393.0
aF392.0
aF397.0
aF388.0
aF388.0
aF373.0
aF381.0
aF385.0
aF404.0
aF400.0
aF412.0
aF382.0
aF364.0
aF363.0
aF406.0
aF388.0
aF420.0
aF391.0
aF375.0
aF405.0
aF384.0
aF400.0
aF402.0
aF381.0
asS'v_nonad_rg'
p14
(lp15
I17
aI59
aI197
aI99
aI328
aI219
aI396
aI272
aI464
aI167
aI305
aI355
aI306
aI469
aI314
aI252
aI658
aI41
aI246
aI164
aI592
aI234
aI505
aI187
aI427
aI620
aI174
aI497
aI242
aI375
aI872
aI444
aI191
aI239
aI299
aI162
aI442
aI529
aI151
aI321
aI262
aI128
aI209
aI248
aI182
aI372
aI528
aI734
aI648
aI292
asS'nsim_ad'
p16
I1000
sS'git'
p17
S'49779d6'
p18
sS'kratio'
p19
I20
sS'r_nonad_g'
p20
(lp21
F356.0
aF376.0
aF332.0
aF369.0
aF336.0
aF378.0
aF339.0
aF369.0
aF373.0
aF376.0
aF396.0
aF377.0
aF341.0
aF315.0
aF359.0
aF354.0
aF364.0
aF329.0
aF347.0
aF379.0
aF319.0
aF354.0
aF350.0
aF344.0
aF297.0
aF431.0
aF383.0
aF369.0
aF339.0
aF339.0
aF361.0
aF336.0
aF372.0
aF375.0
aF318.0
aF401.0
aF352.0
aF325.0
aF376.0
aF328.0
aF363.0
aF408.0
aF377.0
aF391.0
aF371.0
aF371.0
aF389.0
aF364.0
aF351.0
aF368.0
aF371.0
aF359.0
aF408.0
aF393.0
aF368.0
aF353.0
aF354.0
aF396.0
aF359.0
aF360.0
aF329.0
aF376.0
aF346.0
aF347.0
aF353.0
aF365.0
aF369.0
aF388.0
aF363.0
aF321.0
aF320.0
aF354.0
aF335.0
aF375.0
aF369.0
aF346.0
aF381.0
aF347.0
aF368.0
aF375.0
aF347.0
aF341.0
aF331.0
aF364.0
aF373.0
aF358.0
aF343.0
aF305.0
aF346.0
aF351.0
aF375.0
aF365.0
aF355.0
aF365.0
aF340.0
aF360.0
aF364.0
aF354.0
aF375.0
aF336.0
asS'nsim_nonad'
p22
I10000
sS't_h'
p23
I1
sS't_s'
p24
I51
sS'r_nonad_rg'
p25
(lp26
F353.0
aF363.0
aF328.0
aF349.0
aF374.0
aF375.0
aF330.0
aF291.0
aF358.0
aF349.0
aF382.0
aF346.0
aF340.0
aF366.0
aF354.0
aF319.0
aF327.0
aF318.0
aF379.0
aF356.0
aF341.0
aF353.0
aF352.0
aF351.0
aF352.0
aF368.0
aF379.0
aF329.0
aF366.0
aF318.0
aF350.0
aF325.0
aF380.0
aF385.0
aF300.0
aF386.0
aF362.0
aF327.0
aF397.0
aF359.0
aF363.0
aF366.0
aF395.0
aF360.0
aF362.0
aF380.0
aF377.0
aF383.0
aF358.0
aF367.0
aF332.0
aF357.0
aF396.0
aF394.0
aF379.0
aF347.0
aF335.0
aF363.0
aF349.0
aF356.0
aF305.0
aF360.0
aF353.0
aF366.0
aF316.0
aF353.0
aF356.0
aF397.0
aF370.0
aF334.0
aF361.0
aF320.0
aF339.0
aF357.0
aF367.0
aF362.0
aF352.0
aF356.0
aF366.0
aF360.0
aF373.0
aF331.0
aF355.0
aF372.0
aF368.0
aF367.0
aF370.0
aF343.0
aF335.0
aF334.0
aF361.0
aF357.0
aF375.0
aF358.0
aF367.0
aF353.0
aF340.0
aF368.0
aF379.0
aF323.0
asS'workers'
p27
I7
sS'gamma'
p28
F1.0
sS'vcount'
p29
I1000
s.