(dp0
S'niter'
p1
I100
sS'v_ad'
p2
(lp3
I50
aI50
aI50
aI50
aI50
aI50
aI50
aI50
aI50
aI50
aI50
aI50
aI50
aI50
aI50
aI50
aI50
aI50
aI50
aI50
aI50
aI50
aI50
aI50
aI50
aI50
aI50
aI50
aI50
aI50
aI50
aI50
aI50
aI50
aI50
aI50
aI50
aI50
aI50
aI50
aI50
aI50
aI50
aI50
aI50
aI50
aI50
aI50
aI50
aI50
aI50
aI50
aI50
aI50
aI50
aI50
aI50
aI50
aI50
aI50
aI50
aI50
aI50
aI50
aI50
aI50
aI50
aI50
aI50
aI50
aI50
aI50
aI50
aI50
aI50
aI50
aI50
aI50
aI50
aI50
aI50
aI50
aI50
aI50
aI50
aI50
aI50
aI50
aI50
aI50
aI50
aI50
aI50
aI50
aI50
aI50
aI50
aI50
aI50
aI50
asS'trans'
p4
F0.8047941557912676
sS'ecount'
p5
I13033
sS'name'
p6
S'SNAP_GR_1000'
p7
sS't_m'
p8
I56
sS'v_nonad_g'
p9
(lp10
I8
aI12
aI105
aI75
aI127
aI172
aI4
aI61
aI89
aI74
aI151
aI136
aI184
aI152
aI149
aI40
aI177
aI427
aI305
aI130
aI319
aI249
aI120
aI239
aI41
aI145
aI167
aI222
aI129
aI82
aI144
aI368
aI153
aI108
aI143
aI299
aI253
aI306
aI257
aI466
aI168
aI163
aI313
aI174
aI171
aI389
aI364
aI380
aI162
aI418
asS'pedge'
p11
F0.05
sS'r_ad'
p12
(lp13
F213.0
aF194.0
aF186.0
aF157.0
aF200.0
aF205.0
aF181.0
aF161.0
aF175.0
aF203.0
aF213.0
aF225.0
aF226.0
aF209.0
aF186.0
aF210.0
aF207.0
aF193.0
aF214.0
aF199.0
aF189.0
aF223.0
aF218.0
aF218.0
aF194.0
aF202.0
aF172.0
aF188.0
aF200.0
aF195.0
aF186.0
aF204.0
aF200.0
aF199.0
aF156.0
aF175.0
aF188.0
aF191.0
aF190.0
aF194.0
aF190.0
aF201.0
aF180.0
aF216.0
aF241.0
aF188.0
aF210.0
aF205.0
aF209.0
aF207.0
aF176.0
aF197.0
aF190.0
aF179.0
aF220.0
aF178.0
aF221.0
aF194.0
aF205.0
aF188.0
aF165.0
aF180.0
aF218.0
aF164.0
aF194.0
aF180.0
aF205.0
aF175.0
aF194.0
aF201.0
aF192.0
aF216.0
aF199.0
aF196.0
aF182.0
aF197.0
aF193.0
aF171.0
aF221.0
aF170.0
aF200.0
aF230.0
aF234.0
aF166.0
aF205.0
aF194.0
aF199.0
aF199.0
aF199.0
aF225.0
aF207.0
aF213.0
aF222.0
aF186.0
aF205.0
aF218.0
aF194.0
aF189.0
aF196.0
aF192.0
asS'v_nonad_rg'
p14
(lp15
I10
aI68
aI127
aI112
aI43
aI196
aI117
aI49
aI210
aI355
aI75
aI223
aI205
aI147
aI365
aI442
aI41
aI411
aI429
aI529
aI347
aI141
aI211
aI177
aI244
aI469
aI40
aI220
aI91
aI422
aI144
aI168
aI258
aI305
aI249
aI497
aI441
aI383
aI182
aI331
aI262
aI120
aI302
aI150
aI348
aI324
aI153
aI393
aI368
aI306
asS'nsim_ad'
p16
I1000
sS'git'
p17
S'49779d6'
p18
sS'kratio'
p19
I20
sS'r_nonad_g'
p20
(lp21
F210.0
aF164.0
aF185.0
aF156.0
aF194.0
aF197.0
aF160.0
aF159.0
aF161.0
aF189.0
aF198.0
aF206.0
aF198.0
aF204.0
aF184.0
aF189.0
aF201.0
aF185.0
aF194.0
aF188.0
aF181.0
aF198.0
aF190.0
aF199.0
aF191.0
aF169.0
aF148.0
aF183.0
aF166.0
aF136.0
aF171.0
aF158.0
aF185.0
aF173.0
aF159.0
aF164.0
aF153.0
aF161.0
aF187.0
aF193.0
aF166.0
aF193.0
aF165.0
aF179.0
aF213.0
aF202.0
aF190.0
aF186.0
aF194.0
aF173.0
aF164.0
aF185.0
aF182.0
aF180.0
aF203.0
aF151.0
aF181.0
aF178.0
aF179.0
aF178.0
aF184.0
aF169.0
aF196.0
aF183.0
aF179.0
aF170.0
aF162.0
aF153.0
aF171.0
aF172.0
aF192.0
aF200.0
aF143.0
aF183.0
aF180.0
aF186.0
aF188.0
aF171.0
aF180.0
aF157.0
aF200.0
aF197.0
aF211.0
aF189.0
aF185.0
aF179.0
aF180.0
aF194.0
aF159.0
aF220.0
aF201.0
aF193.0
aF196.0
aF162.0
aF174.0
aF187.0
aF189.0
aF167.0
aF188.0
aF179.0
asS'nsim_nonad'
p22
I10000
sS't_h'
p23
I1
sS't_s'
p24
I28
sS'r_nonad_rg'
p25
(lp26
F176.0
aF151.0
aF177.0
aF162.0
aF195.0
aF183.0
aF146.0
aF163.0
aF154.0
aF176.0
aF137.0
aF189.0
aF152.0
aF176.0
aF196.0
aF179.0
aF190.0
aF165.0
aF186.0
aF190.0
aF182.0
aF188.0
aF202.0
aF199.0
aF197.0
aF163.0
aF161.0
aF171.0
aF184.0
aF134.0
aF162.0
aF157.0
aF181.0
aF153.0
aF168.0
aF149.0
aF149.0
aF167.0
aF167.0
aF193.0
aF174.0
aF187.0
aF170.0
aF181.0
aF210.0
aF179.0
aF166.0
aF177.0
aF188.0
aF148.0
aF165.0
aF194.0
aF183.0
aF192.0
aF191.0
aF127.0
aF199.0
aF163.0
aF170.0
aF185.0
aF145.0
aF157.0
aF192.0
aF160.0
aF192.0
aF167.0
aF160.0
aF174.0
aF168.0
aF183.0
aF133.0
aF195.0
aF176.0
aF200.0
aF185.0
aF170.0
aF155.0
aF177.0
aF183.0
aF176.0
aF188.0
aF208.0
aF225.0
aF180.0
aF192.0
aF188.0
aF175.0
aF183.0
aF173.0
aF206.0
aF181.0
aF192.0
aF211.0
aF190.0
aF172.0
aF178.0
aF182.0
aF167.0
aF161.0
aF171.0
asS'workers'
p27
I7
sS'gamma'
p28
F1.0
sS'vcount'
p29
I1000
s.