(dp0
S'niter'
p1
I100
sS'v_ad'
p2
(lp3
I50
aI50
aI50
aI50
aI50
aI50
aI50
aI50
aI50
aI50
aI50
aI50
aI50
aI50
aI50
aI50
aI50
aI50
aI50
aI50
aI50
aI50
aI50
aI50
aI50
aI50
aI50
aI50
aI50
aI50
aI50
aI50
aI50
aI50
aI50
aI50
aI50
aI50
aI50
aI50
aI50
aI50
aI50
aI50
aI50
aI50
aI50
aI50
aI50
aI50
aI50
aI50
aI50
aI50
aI50
aI50
aI50
aI50
aI50
aI50
aI50
aI50
aI50
aI50
aI50
aI50
aI50
aI50
aI50
aI50
aI50
aI50
aI50
aI50
aI50
aI50
aI50
aI50
aI50
aI50
aI50
aI50
aI50
aI50
aI50
aI50
aI50
aI50
aI50
aI50
aI50
aI50
aI50
aI50
aI50
aI50
aI50
aI50
aI50
aI50
asS'trans'
p4
F0.8047941557912676
sS'ecount'
p5
I13033
sS'name'
p6
S'SNAP_GR_1000'
p7
sS't_m'
p8
I51
sS'v_nonad_g'
p9
(lp10
I2
aI70
aI92
aI127
aI219
aI75
aI427
aI177
aI391
aI239
aI299
aI389
aI168
aI752
aI130
aI165
aI380
aI376
aI144
aI171
aI242
aI289
aI187
aI174
aI620
aI444
aI603
aI128
aI288
aI286
aI309
aI801
aI243
aI479
aI221
aI146
aI518
aI657
aI297
aI162
aI178
aI469
aI898
aI428
aI292
aI419
aI413
aI983
aI283
aI844
asS'pedge'
p11
F0.15
sS'r_ad'
p12
(lp13
F547.0
aF575.0
aF547.0
aF551.0
aF584.0
aF533.0
aF563.0
aF546.0
aF580.0
aF525.0
aF537.0
aF589.0
aF541.0
aF548.0
aF534.0
aF538.0
aF560.0
aF564.0
aF540.0
aF547.0
aF584.0
aF510.0
aF548.0
aF516.0
aF509.0
aF529.0
aF542.0
aF567.0
aF544.0
aF531.0
aF523.0
aF541.0
aF523.0
aF559.0
aF539.0
aF531.0
aF534.0
aF532.0
aF566.0
aF547.0
aF519.0
aF520.0
aF532.0
aF539.0
aF571.0
aF564.0
aF536.0
aF523.0
aF535.0
aF562.0
aF546.0
aF541.0
aF593.0
aF543.0
aF518.0
aF580.0
aF560.0
aF544.0
aF545.0
aF495.0
aF540.0
aF516.0
aF558.0
aF559.0
aF556.0
aF484.0
aF546.0
aF540.0
aF572.0
aF527.0
aF560.0
aF544.0
aF548.0
aF554.0
aF551.0
aF537.0
aF540.0
aF531.0
aF565.0
aF587.0
aF563.0
aF539.0
aF548.0
aF566.0
aF534.0
aF534.0
aF527.0
aF569.0
aF529.0
aF532.0
aF551.0
aF570.0
aF533.0
aF523.0
aF549.0
aF527.0
aF544.0
aF537.0
aF527.0
aF580.0
asS'v_nonad_rg'
p14
(lp15
I14
aI53
aI224
aI79
aI358
aI222
aI463
aI391
aI434
aI160
aI239
aI867
aI340
aI776
aI758
aI136
aI415
aI153
aI302
aI289
aI103
aI288
aI430
aI41
aI146
aI292
aI143
aI308
aI563
aI538
aI809
aI632
aI82
aI229
aI144
aI815
aI901
aI283
aI618
aI498
aI653
aI242
aI620
aI299
aI423
aI642
aI479
aI619
aI541
aI589
asS'nsim_ad'
p16
I1000
sS'git'
p17
S'49779d6'
p18
sS'kratio'
p19
I20
sS'r_nonad_g'
p20
(lp21
F456.0
aF539.0
aF516.0
aF495.0
aF553.0
aF472.0
aF514.0
aF499.0
aF522.0
aF507.0
aF484.0
aF539.0
aF521.0
aF507.0
aF500.0
aF490.0
aF523.0
aF523.0
aF501.0
aF510.0
aF536.0
aF452.0
aF505.0
aF475.0
aF473.0
aF528.0
aF510.0
aF531.0
aF500.0
aF504.0
aF508.0
aF532.0
aF516.0
aF513.0
aF528.0
aF506.0
aF492.0
aF514.0
aF515.0
aF507.0
aF468.0
aF487.0
aF521.0
aF490.0
aF518.0
aF519.0
aF487.0
aF492.0
aF491.0
aF471.0
aF504.0
aF495.0
aF546.0
aF467.0
aF465.0
aF558.0
aF509.0
aF497.0
aF514.0
aF476.0
aF501.0
aF469.0
aF502.0
aF491.0
aF526.0
aF487.0
aF507.0
aF502.0
aF507.0
aF503.0
aF508.0
aF514.0
aF537.0
aF503.0
aF506.0
aF517.0
aF495.0
aF473.0
aF537.0
aF544.0
aF521.0
aF489.0
aF515.0
aF522.0
aF499.0
aF480.0
aF502.0
aF526.0
aF496.0
aF521.0
aF502.0
aF482.0
aF497.0
aF514.0
aF525.0
aF489.0
aF495.0
aF511.0
aF501.0
aF555.0
asS'nsim_nonad'
p22
I10000
sS't_h'
p23
I0
sS't_s'
p24
I48
sS'r_nonad_rg'
p25
(lp26
F512.0
aF510.0
aF494.0
aF519.0
aF551.0
aF458.0
aF494.0
aF470.0
aF536.0
aF510.0
aF476.0
aF527.0
aF525.0
aF498.0
aF498.0
aF465.0
aF508.0
aF502.0
aF494.0
aF508.0
aF550.0
aF481.0
aF511.0
aF485.0
aF449.0
aF490.0
aF510.0
aF489.0
aF484.0
aF501.0
aF494.0
aF505.0
aF479.0
aF485.0
aF510.0
aF503.0
aF512.0
aF506.0
aF468.0
aF509.0
aF493.0
aF476.0
aF505.0
aF495.0
aF496.0
aF518.0
aF511.0
aF489.0
aF462.0
aF511.0
aF493.0
aF482.0
aF539.0
aF474.0
aF479.0
aF548.0
aF510.0
aF488.0
aF509.0
aF455.0
aF510.0
aF475.0
aF511.0
aF481.0
aF506.0
aF471.0
aF472.0
aF449.0
aF515.0
aF511.0
aF514.0
aF468.0
aF522.0
aF495.0
aF510.0
aF512.0
aF481.0
aF488.0
aF519.0
aF539.0
aF532.0
aF476.0
aF518.0
aF504.0
aF474.0
aF491.0
aF514.0
aF536.0
aF518.0
aF485.0
aF496.0
aF503.0
aF505.0
aF475.0
aF485.0
aF497.0
aF471.0
aF488.0
aF515.0
aF522.0
asS'workers'
p27
I7
sS'gamma'
p28
F1.0
sS'vcount'
p29
I1000
s.