(dp0
S'niter'
p1
I100
sS'v_ad'
p2
(lp3
I14
aI17
aI24
aI21
aI20
aI19
aI20
aI22
aI18
aI16
aI17
aI17
aI21
aI11
aI16
aI16
aI19
aI23
aI16
aI14
aI21
aI16
aI15
aI14
aI19
aI15
aI19
aI18
aI21
aI14
aI12
aI15
aI22
aI13
aI15
aI13
aI21
aI21
aI14
aI19
aI21
aI13
aI14
aI13
aI15
aI22
aI21
aI15
aI20
aI15
aI20
aI20
aI16
aI22
aI18
aI18
aI20
aI16
aI13
aI17
aI11
aI14
aI20
aI24
aI16
aI18
aI14
aI14
aI17
aI17
aI18
aI20
aI19
aI15
aI21
aI21
aI25
aI22
aI16
aI20
aI14
aI15
aI18
aI22
aI18
aI16
aI16
aI17
aI19
aI17
aI17
aI13
aI15
aI21
aI17
aI12
aI17
aI25
aI16
aI11
asS'trans'
p4
F0.8047941557912676
sS'ecount'
p5
I13033
sS'name'
p6
S'SNAP_GR_1000'
p7
sS't_m'
p8
I25
sS'v_nonad_g'
p9
(lp10
I166
aI172
aI422
aI78
aI776
aI910
aI635
aI852
aI704
aI866
aI651
aI930
aI900
aI581
asS'pedge'
p11
F0.5
sS'r_ad'
p12
(lp13
F946.0
aF929.0
aF923.0
aF922.0
aF933.0
aF931.0
aF930.0
aF933.0
aF935.0
aF933.0
aF931.0
aF935.0
aF926.0
aF941.0
aF924.0
aF934.0
aF935.0
aF924.0
aF933.0
aF933.0
aF928.0
aF936.0
aF933.0
aF932.0
aF927.0
aF932.0
aF923.0
aF936.0
aF930.0
aF938.0
aF933.0
aF937.0
aF933.0
aF937.0
aF941.0
aF944.0
aF930.0
aF927.0
aF933.0
aF927.0
aF924.0
aF935.0
aF927.0
aF931.0
aF934.0
aF925.0
aF919.0
aF938.0
aF921.0
aF932.0
aF933.0
aF918.0
aF927.0
aF923.0
aF922.0
aF927.0
aF937.0
aF934.0
aF937.0
aF933.0
aF945.0
aF935.0
aF924.0
aF925.0
aF927.0
aF935.0
aF934.0
aF933.0
aF935.0
aF933.0
aF927.0
aF926.0
aF927.0
aF929.0
aF924.0
aF925.0
aF911.0
aF924.0
aF928.0
aF924.0
aF931.0
aF935.0
aF922.0
aF930.0
aF936.0
aF932.0
aF930.0
aF926.0
aF940.0
aF931.0
aF938.0
aF933.0
aF937.0
aF927.0
aF918.0
aF931.0
aF939.0
aF927.0
aF929.0
aF935.0
asS'v_nonad_rg'
p14
(lp15
I0
aI207
aI114
aI441
aI715
aI437
aI874
aI641
aI846
aI704
aI852
aI900
aI930
aI581
aI945
asS'nsim_ad'
p16
I1000
sS'git'
p17
S'49779d6'
p18
sS'kratio'
p19
I20
sS'r_nonad_g'
p20
(lp21
F933.0
aF907.0
aF903.0
aF913.0
aF912.0
aF916.0
aF919.0
aF923.0
aF922.0
aF904.0
aF900.0
aF916.0
aF908.0
aF927.0
aF913.0
aF913.0
aF922.0
aF906.0
aF927.0
aF910.0
aF917.0
aF923.0
aF915.0
aF927.0
aF917.0
aF920.0
aF911.0
aF920.0
aF911.0
aF923.0
aF918.0
aF922.0
aF912.0
aF920.0
aF931.0
aF935.0
aF922.0
aF910.0
aF923.0
aF915.0
aF910.0
aF926.0
aF917.0
aF922.0
aF928.0
aF917.0
aF905.0
aF923.0
aF901.0
aF920.0
aF920.0
aF907.0
aF921.0
aF901.0
aF912.0
aF913.0
aF921.0
aF923.0
aF930.0
aF920.0
aF932.0
aF919.0
aF910.0
aF909.0
aF917.0
aF920.0
aF919.0
aF922.0
aF922.0
aF920.0
aF919.0
aF901.0
aF911.0
aF912.0
aF921.0
aF910.0
aF885.0
aF899.0
aF914.0
aF907.0
aF924.0
aF916.0
aF910.0
aF911.0
aF923.0
aF917.0
aF923.0
aF911.0
aF927.0
aF919.0
aF915.0
aF925.0
aF925.0
aF910.0
aF913.0
aF918.0
aF919.0
aF904.0
aF914.0
aF924.0
asS'nsim_nonad'
p22
I10000
sS't_h'
p23
I1
sS't_s'
p24
I1
sS'r_nonad_rg'
p25
(lp26
F930.0
aF906.0
aF901.0
aF911.0
aF913.0
aF919.0
aF917.0
aF920.0
aF921.0
aF905.0
aF902.0
aF916.0
aF907.0
aF928.0
aF914.0
aF912.0
aF923.0
aF905.0
aF928.0
aF910.0
aF918.0
aF923.0
aF915.0
aF925.0
aF917.0
aF922.0
aF910.0
aF917.0
aF911.0
aF922.0
aF917.0
aF922.0
aF912.0
aF918.0
aF931.0
aF935.0
aF923.0
aF914.0
aF923.0
aF915.0
aF911.0
aF926.0
aF917.0
aF920.0
aF926.0
aF913.0
aF906.0
aF922.0
aF900.0
aF921.0
aF920.0
aF905.0
aF916.0
aF902.0
aF912.0
aF913.0
aF921.0
aF922.0
aF928.0
aF916.0
aF930.0
aF920.0
aF908.0
aF909.0
aF915.0
aF919.0
aF918.0
aF922.0
aF919.0
aF918.0
aF917.0
aF901.0
aF912.0
aF914.0
aF918.0
aF909.0
aF886.0
aF899.0
aF914.0
aF903.0
aF922.0
aF913.0
aF910.0
aF910.0
aF922.0
aF917.0
aF923.0
aF910.0
aF927.0
aF919.0
aF912.0
aF923.0
aF925.0
aF909.0
aF914.0
aF916.0
aF919.0
aF906.0
aF912.0
aF923.0
asS'workers'
p27
I7
sS'gamma'
p28
F1.0
sS'vcount'
p29
I1000
s.