(dp0
S'niter'
p1
I100
sS'v_ad'
p2
(lp3
I5
aI5
aI5
aI5
aI5
aI5
aI5
aI5
aI5
aI5
aI5
aI5
aI5
aI5
aI5
aI5
aI5
aI5
aI5
aI5
aI5
aI5
aI5
aI5
aI5
aI5
aI5
aI5
aI5
aI5
aI5
aI5
aI5
aI5
aI5
aI5
aI5
aI5
aI5
aI5
aI5
aI5
aI5
aI5
aI5
aI5
aI5
aI5
aI5
aI5
aI5
aI5
aI5
aI5
aI5
aI5
aI5
aI5
aI5
aI5
aI5
aI5
aI5
aI5
aI5
aI5
aI5
aI5
aI5
aI5
aI5
aI5
aI5
aI5
aI5
aI5
aI5
aI5
aI5
aI5
aI5
aI5
aI5
aI5
aI5
aI5
aI5
aI5
aI5
aI5
aI5
aI5
aI5
aI5
aI5
aI5
aI5
aI5
aI5
aI5
asS'trans'
p4
F0.6892001655525245
sS'ecount'
p5
I45990
sS'name'
p6
S'SNAP_FB_1000'
p7
sS't_m'
p8
I43
sS'v_nonad_g'
p9
(lp10
I145
aI7
aI431
aI396
aI644
asS'pedge'
p11
F0.15
sS'r_ad'
p12
(lp13
F697.0
aF710.0
aF757.0
aF637.0
aF739.0
aF665.0
aF713.0
aF671.0
aF729.0
aF658.0
aF689.0
aF744.0
aF718.0
aF713.0
aF757.0
aF748.0
aF675.0
aF624.0
aF740.0
aF694.0
aF674.0
aF735.0
aF675.0
aF726.0
aF757.0
aF740.0
aF711.0
aF699.0
aF724.0
aF755.0
aF661.0
aF701.0
aF668.0
aF706.0
aF725.0
aF654.0
aF711.0
aF690.0
aF695.0
aF713.0
aF746.0
aF728.0
aF739.0
aF671.0
aF717.0
aF721.0
aF597.0
aF773.0
aF676.0
aF714.0
aF660.0
aF756.0
aF658.0
aF738.0
aF719.0
aF657.0
aF749.0
aF712.0
aF689.0
aF631.0
aF735.0
aF703.0
aF745.0
aF719.0
aF694.0
aF751.0
aF711.0
aF706.0
aF725.0
aF668.0
aF733.0
aF718.0
aF746.0
aF725.0
aF708.0
aF692.0
aF718.0
aF732.0
aF623.0
aF740.0
aF729.0
aF740.0
aF674.0
aF717.0
aF690.0
aF747.0
aF668.0
aF752.0
aF723.0
aF714.0
aF709.0
aF703.0
aF713.0
aF720.0
aF716.0
aF702.0
aF676.0
aF715.0
aF704.0
aF654.0
asS'v_nonad_rg'
p14
(lp15
I208
aI293
aI507
aI431
aI749
asS'nsim_ad'
p16
I1000
sS'git'
p17
S'bf3390d'
p18
sS'kratio'
p19
I200
sS'r_nonad_g'
p20
(lp21
F738.0
aF644.0
aF745.0
aF712.0
aF750.0
aF738.0
aF774.0
aF756.0
aF772.0
aF681.0
aF688.0
aF778.0
aF713.0
aF753.0
aF767.0
aF780.0
aF763.0
aF720.0
aF750.0
aF743.0
aF735.0
aF780.0
aF672.0
aF742.0
aF717.0
aF761.0
aF753.0
aF699.0
aF757.0
aF721.0
aF694.0
aF721.0
aF739.0
aF711.0
aF698.0
aF710.0
aF753.0
aF710.0
aF694.0
aF737.0
aF748.0
aF738.0
aF705.0
aF631.0
aF669.0
aF751.0
aF627.0
aF757.0
aF720.0
aF757.0
aF688.0
aF753.0
aF700.0
aF732.0
aF725.0
aF680.0
aF790.0
aF684.0
aF703.0
aF716.0
aF728.0
aF719.0
aF755.0
aF729.0
aF734.0
aF765.0
aF724.0
aF751.0
aF729.0
aF732.0
aF706.0
aF718.0
aF717.0
aF776.0
aF714.0
aF724.0
aF727.0
aF749.0
aF717.0
aF760.0
aF743.0
aF753.0
aF700.0
aF760.0
aF670.0
aF676.0
aF738.0
aF766.0
aF752.0
aF684.0
aF653.0
aF721.0
aF739.0
aF731.0
aF694.0
aF728.0
aF723.0
aF711.0
aF740.0
aF745.0
asS'nsim_nonad'
p22
I10000
sS't_h'
p23
I0
sS't_s'
p24
I49
sS'r_nonad_rg'
p25
(lp26
F719.0
aF696.0
aF744.0
aF690.0
aF739.0
aF591.0
aF707.0
aF717.0
aF768.0
aF689.0
aF646.0
aF730.0
aF721.0
aF756.0
aF734.0
aF742.0
aF752.0
aF612.0
aF730.0
aF772.0
aF699.0
aF761.0
aF679.0
aF701.0
aF677.0
aF740.0
aF739.0
aF716.0
aF721.0
aF746.0
aF688.0
aF708.0
aF716.0
aF762.0
aF678.0
aF644.0
aF737.0
aF663.0
aF685.0
aF717.0
aF766.0
aF747.0
aF734.0
aF672.0
aF739.0
aF683.0
aF648.0
aF763.0
aF731.0
aF712.0
aF690.0
aF670.0
aF633.0
aF703.0
aF719.0
aF701.0
aF736.0
aF750.0
aF697.0
aF709.0
aF736.0
aF729.0
aF728.0
aF733.0
aF738.0
aF735.0
aF730.0
aF716.0
aF717.0
aF644.0
aF675.0
aF696.0
aF740.0
aF779.0
aF714.0
aF653.0
aF738.0
aF666.0
aF673.0
aF719.0
aF746.0
aF735.0
aF706.0
aF744.0
aF639.0
aF707.0
aF724.0
aF759.0
aF690.0
aF703.0
aF670.0
aF692.0
aF745.0
aF704.0
aF714.0
aF673.0
aF700.0
aF691.0
aF739.0
aF593.0
asS'workers'
p27
I7
sS'gamma'
p28
F1.0
sS'vcount'
p29
I1000
s.