(dp0
S'niter'
p1
I100
sS'v_ad'
p2
(lp3
I5
aI5
aI5
aI5
aI5
aI5
aI5
aI5
aI5
aI5
aI5
aI5
aI5
aI5
aI5
aI5
aI5
aI5
aI5
aI5
aI5
aI5
aI5
aI5
aI5
aI5
aI5
aI5
aI5
aI5
aI5
aI5
aI5
aI5
aI5
aI5
aI5
aI5
aI5
aI5
aI5
aI5
aI5
aI5
aI5
aI5
aI5
aI5
aI5
aI5
aI5
aI5
aI5
aI5
aI5
aI5
aI5
aI5
aI5
aI5
aI5
aI5
aI5
aI5
aI5
aI5
aI5
aI5
aI5
aI5
aI5
aI5
aI5
aI5
aI5
aI5
aI5
aI5
aI5
aI5
aI5
aI5
aI5
aI5
aI5
aI5
aI5
aI5
aI5
aI5
aI5
aI5
aI5
aI5
aI5
aI5
aI5
aI5
aI5
aI5
asS'trans'
p4
F0.6892001655525245
sS'ecount'
p5
I45990
sS'name'
p6
S'SNAP_FB_1000'
p7
sS't_m'
p8
I6
sS'v_nonad_g'
p9
(lp10
I145
aI7
aI342
aI127
aI293
asS'pedge'
p11
F0.05
sS'r_ad'
p12
(lp13
F328.0
aF302.0
aF287.0
aF256.0
aF294.0
aF318.0
aF377.0
aF325.0
aF286.0
aF360.0
aF335.0
aF352.0
aF333.0
aF390.0
aF288.0
aF295.0
aF311.0
aF377.0
aF296.0
aF356.0
aF300.0
aF283.0
aF286.0
aF327.0
aF369.0
aF349.0
aF283.0
aF354.0
aF264.0
aF338.0
aF326.0
aF366.0
aF337.0
aF377.0
aF338.0
aF300.0
aF310.0
aF294.0
aF308.0
aF357.0
aF314.0
aF387.0
aF326.0
aF359.0
aF279.0
aF369.0
aF338.0
aF358.0
aF337.0
aF316.0
aF381.0
aF347.0
aF372.0
aF318.0
aF368.0
aF352.0
aF342.0
aF355.0
aF287.0
aF349.0
aF330.0
aF206.0
aF370.0
aF317.0
aF306.0
aF345.0
aF295.0
aF275.0
aF344.0
aF357.0
aF338.0
aF329.0
aF307.0
aF257.0
aF340.0
aF299.0
aF309.0
aF306.0
aF238.0
aF315.0
aF324.0
aF354.0
aF296.0
aF316.0
aF334.0
aF285.0
aF283.0
aF387.0
aF263.0
aF342.0
aF270.0
aF322.0
aF360.0
aF392.0
aF351.0
aF360.0
aF339.0
aF312.0
aF304.0
aF311.0
asS'v_nonad_rg'
p14
(lp15
I84
aI66
aI162
aI7
aI152
asS'nsim_ad'
p16
I1000
sS'git'
p17
S'bf3390d'
p18
sS'kratio'
p19
I200
sS'r_nonad_g'
p20
(lp21
F332.0
aF298.0
aF263.0
aF278.0
aF312.0
aF296.0
aF348.0
aF374.0
aF317.0
aF375.0
aF275.0
aF312.0
aF317.0
aF391.0
aF315.0
aF305.0
aF395.0
aF373.0
aF337.0
aF318.0
aF256.0
aF347.0
aF296.0
aF319.0
aF320.0
aF300.0
aF293.0
aF344.0
aF318.0
aF335.0
aF318.0
aF388.0
aF341.0
aF360.0
aF279.0
aF356.0
aF297.0
aF301.0
aF323.0
aF309.0
aF325.0
aF335.0
aF402.0
aF330.0
aF354.0
aF283.0
aF288.0
aF309.0
aF341.0
aF343.0
aF384.0
aF327.0
aF409.0
aF332.0
aF344.0
aF351.0
aF325.0
aF379.0
aF342.0
aF362.0
aF355.0
aF260.0
aF379.0
aF278.0
aF304.0
aF397.0
aF321.0
aF269.0
aF374.0
aF366.0
aF294.0
aF351.0
aF332.0
aF277.0
aF311.0
aF297.0
aF361.0
aF328.0
aF332.0
aF307.0
aF352.0
aF352.0
aF342.0
aF225.0
aF369.0
aF308.0
aF348.0
aF329.0
aF342.0
aF370.0
aF261.0
aF293.0
aF311.0
aF411.0
aF314.0
aF377.0
aF309.0
aF284.0
aF316.0
aF316.0
asS'nsim_nonad'
p22
I10000
sS't_h'
p23
I1
sS't_s'
p24
I52
sS'r_nonad_rg'
p25
(lp26
F341.0
aF342.0
aF278.0
aF332.0
aF322.0
aF323.0
aF304.0
aF340.0
aF274.0
aF359.0
aF377.0
aF324.0
aF307.0
aF425.0
aF286.0
aF310.0
aF315.0
aF347.0
aF343.0
aF326.0
aF337.0
aF330.0
aF354.0
aF327.0
aF339.0
aF337.0
aF324.0
aF264.0
aF313.0
aF359.0
aF330.0
aF324.0
aF320.0
aF386.0
aF318.0
aF337.0
aF310.0
aF319.0
aF322.0
aF338.0
aF266.0
aF290.0
aF316.0
aF365.0
aF283.0
aF358.0
aF280.0
aF335.0
aF336.0
aF307.0
aF370.0
aF245.0
aF349.0
aF334.0
aF318.0
aF323.0
aF329.0
aF343.0
aF404.0
aF363.0
aF338.0
aF238.0
aF352.0
aF296.0
aF292.0
aF360.0
aF349.0
aF245.0
aF352.0
aF362.0
aF329.0
aF307.0
aF295.0
aF270.0
aF380.0
aF322.0
aF342.0
aF265.0
aF355.0
aF359.0
aF353.0
aF313.0
aF325.0
aF329.0
aF318.0
aF274.0
aF249.0
aF366.0
aF331.0
aF311.0
aF174.0
aF295.0
aF348.0
aF359.0
aF343.0
aF282.0
aF339.0
aF320.0
aF273.0
aF325.0
asS'workers'
p27
I7
sS'gamma'
p28
F1.0
sS'vcount'
p29
I1000
s.