(dp0
S'niter'
p1
I100
sS'v_ad'
p2
(lp3
I5
aI5
aI5
aI5
aI5
aI5
aI5
aI5
aI5
aI5
aI5
aI5
aI5
aI5
aI5
aI5
aI5
aI5
aI5
aI5
aI5
aI5
aI5
aI5
aI5
aI5
aI5
aI5
aI5
aI5
aI5
aI5
aI5
aI5
aI5
aI5
aI5
aI5
aI5
aI5
aI5
aI5
aI5
aI5
aI5
aI5
aI5
aI5
aI5
aI5
aI5
aI5
aI5
aI5
aI5
aI5
aI5
aI5
aI5
aI5
aI5
aI5
aI5
aI5
aI5
aI5
aI5
aI5
aI5
aI5
aI5
aI5
aI5
aI5
aI5
aI5
aI5
aI5
aI5
aI5
aI5
aI5
aI5
aI5
aI5
aI5
aI5
aI5
aI5
aI5
aI5
aI5
aI5
aI5
aI5
aI5
aI5
aI5
aI5
aI5
asS'trans'
p4
F0.6892001655525245
sS'ecount'
p5
I45990
sS'name'
p6
S'SNAP_FB_1000'
p7
sS't_m'
p8
I49
sS'v_nonad_g'
p9
(lp10
I76
aI7
aI5
aI84
aI24
asS'pedge'
p11
F0.01
sS'r_ad'
p12
(lp13
F24.0
aF12.0
aF8.0
aF19.0
aF12.0
aF32.0
aF6.0
aF23.0
aF31.0
aF26.0
aF11.0
aF19.0
aF20.0
aF23.0
aF16.0
aF12.0
aF15.0
aF30.0
aF31.0
aF29.0
aF27.0
aF5.0
aF15.0
aF14.0
aF13.0
aF19.0
aF35.0
aF11.0
aF28.0
aF20.0
aF20.0
aF26.0
aF32.0
aF16.0
aF30.0
aF27.0
aF11.0
aF17.0
aF32.0
aF18.0
aF25.0
aF10.0
aF8.0
aF20.0
aF15.0
aF16.0
aF27.0
aF16.0
aF37.0
aF17.0
aF17.0
aF28.0
aF9.0
aF22.0
aF20.0
aF29.0
aF22.0
aF30.0
aF19.0
aF16.0
aF9.0
aF25.0
aF20.0
aF6.0
aF12.0
aF26.0
aF12.0
aF26.0
aF14.0
aF21.0
aF8.0
aF19.0
aF17.0
aF12.0
aF12.0
aF1.0
aF16.0
aF18.0
aF19.0
aF37.0
aF9.0
aF31.0
aF16.0
aF17.0
aF18.0
aF17.0
aF10.0
aF15.0
aF13.0
aF28.0
aF33.0
aF22.0
aF28.0
aF8.0
aF15.0
aF34.0
aF14.0
aF25.0
aF15.0
aF22.0
asS'v_nonad_rg'
p14
(lp15
I84
aI5
aI24
aI7
aI88
asS'nsim_ad'
p16
I1000
sS'git'
p17
S'bf3390d'
p18
sS'kratio'
p19
I200
sS'r_nonad_g'
p20
(lp21
F32.0
aF9.0
aF8.0
aF22.0
aF25.0
aF40.0
aF21.0
aF23.0
aF40.0
aF31.0
aF18.0
aF22.0
aF18.0
aF21.0
aF30.0
aF27.0
aF13.0
aF31.0
aF16.0
aF14.0
aF22.0
aF4.0
aF12.0
aF12.0
aF14.0
aF12.0
aF22.0
aF11.0
aF35.0
aF26.0
aF21.0
aF27.0
aF33.0
aF19.0
aF25.0
aF27.0
aF12.0
aF9.0
aF18.0
aF7.0
aF27.0
aF5.0
aF11.0
aF21.0
aF16.0
aF24.0
aF10.0
aF5.0
aF21.0
aF11.0
aF27.0
aF33.0
aF10.0
aF20.0
aF12.0
aF45.0
aF17.0
aF30.0
aF30.0
aF24.0
aF24.0
aF22.0
aF20.0
aF13.0
aF15.0
aF25.0
aF17.0
aF16.0
aF14.0
aF21.0
aF3.0
aF6.0
aF14.0
aF6.0
aF11.0
aF7.0
aF15.0
aF20.0
aF17.0
aF27.0
aF15.0
aF33.0
aF15.0
aF22.0
aF19.0
aF19.0
aF11.0
aF13.0
aF15.0
aF23.0
aF24.0
aF23.0
aF18.0
aF7.0
aF13.0
aF30.0
aF12.0
aF21.0
aF8.0
aF12.0
asS'nsim_nonad'
p22
I10000
sS't_h'
p23
I1
sS't_s'
p24
I39
sS'r_nonad_rg'
p25
(lp26
F25.0
aF6.0
aF9.0
aF17.0
aF25.0
aF33.0
aF22.0
aF22.0
aF30.0
aF29.0
aF14.0
aF17.0
aF9.0
aF26.0
aF28.0
aF19.0
aF14.0
aF28.0
aF25.0
aF16.0
aF25.0
aF7.0
aF21.0
aF14.0
aF15.0
aF14.0
aF30.0
aF10.0
aF26.0
aF23.0
aF21.0
aF31.0
aF38.0
aF9.0
aF26.0
aF30.0
aF9.0
aF21.0
aF25.0
aF8.0
aF29.0
aF5.0
aF19.0
aF24.0
aF13.0
aF20.0
aF19.0
aF8.0
aF20.0
aF15.0
aF30.0
aF36.0
aF16.0
aF18.0
aF16.0
aF35.0
aF13.0
aF31.0
aF18.0
aF15.0
aF21.0
aF27.0
aF21.0
aF8.0
aF15.0
aF30.0
aF21.0
aF17.0
aF10.0
aF23.0
aF7.0
aF8.0
aF15.0
aF6.0
aF10.0
aF14.0
aF10.0
aF17.0
aF23.0
aF33.0
aF15.0
aF34.0
aF19.0
aF25.0
aF13.0
aF20.0
aF11.0
aF21.0
aF7.0
aF10.0
aF28.0
aF24.0
aF24.0
aF8.0
aF13.0
aF34.0
aF13.0
aF14.0
aF7.0
aF12.0
asS'workers'
p27
I7
sS'gamma'
p28
F1.0
sS'vcount'
p29
I1000
s.