(dp0
S'niter'
p1
I100
sS'v_ad'
p2
(lp3
I5
aI5
aI5
aI5
aI5
aI5
aI5
aI5
aI5
aI5
aI5
aI5
aI5
aI5
aI5
aI5
aI5
aI5
aI5
aI5
aI5
aI5
aI5
aI5
aI5
aI5
aI5
aI5
aI5
aI5
aI5
aI5
aI5
aI5
aI5
aI5
aI5
aI5
aI5
aI5
aI5
aI5
aI5
aI5
aI5
aI5
aI5
aI5
aI5
aI5
aI5
aI5
aI5
aI5
aI5
aI5
aI5
aI5
aI5
aI5
aI5
aI5
aI5
aI5
aI5
aI5
aI5
aI5
aI5
aI5
aI5
aI5
aI5
aI5
aI5
aI5
aI5
aI5
aI5
aI5
aI5
aI5
aI5
aI5
aI5
aI5
aI5
aI5
aI5
aI5
aI5
aI5
aI5
aI5
aI5
aI5
aI5
aI5
aI5
aI5
asS'trans'
p4
F0.6892001655525245
sS'ecount'
p5
I45990
sS'name'
p6
S'SNAP_FB_1000'
p7
sS't_m'
p8
I44
sS'v_nonad_g'
p9
(lp10
I145
aI7
aI431
aI396
aI644
asS'pedge'
p11
F0.2
sS'r_ad'
p12
(lp13
F795.0
aF773.0
aF771.0
aF792.0
aF779.0
aF772.0
aF808.0
aF709.0
aF784.0
aF801.0
aF738.0
aF752.0
aF784.0
aF763.0
aF784.0
aF807.0
aF760.0
aF754.0
aF770.0
aF776.0
aF799.0
aF803.0
aF809.0
aF806.0
aF725.0
aF762.0
aF791.0
aF776.0
aF728.0
aF804.0
aF786.0
aF762.0
aF786.0
aF769.0
aF783.0
aF808.0
aF764.0
aF771.0
aF773.0
aF767.0
aF758.0
aF739.0
aF757.0
aF756.0
aF769.0
aF748.0
aF757.0
aF800.0
aF768.0
aF772.0
aF744.0
aF753.0
aF755.0
aF778.0
aF746.0
aF712.0
aF806.0
aF792.0
aF804.0
aF766.0
aF779.0
aF707.0
aF749.0
aF753.0
aF783.0
aF769.0
aF763.0
aF754.0
aF764.0
aF782.0
aF727.0
aF745.0
aF802.0
aF764.0
aF777.0
aF776.0
aF794.0
aF774.0
aF823.0
aF803.0
aF811.0
aF724.0
aF774.0
aF790.0
aF761.0
aF758.0
aF767.0
aF758.0
aF797.0
aF767.0
aF747.0
aF764.0
aF765.0
aF762.0
aF781.0
aF793.0
aF735.0
aF765.0
aF758.0
aF790.0
asS'v_nonad_rg'
p14
(lp15
I208
aI293
aI396
aI431
aI916
asS'nsim_ad'
p16
I1000
sS'git'
p17
S'bf3390d'
p18
sS'kratio'
p19
I200
sS'r_nonad_g'
p20
(lp21
F806.0
aF781.0
aF774.0
aF803.0
aF779.0
aF802.0
aF785.0
aF788.0
aF818.0
aF801.0
aF759.0
aF807.0
aF789.0
aF764.0
aF759.0
aF823.0
aF807.0
aF783.0
aF772.0
aF786.0
aF791.0
aF778.0
aF807.0
aF792.0
aF775.0
aF774.0
aF814.0
aF795.0
aF718.0
aF778.0
aF809.0
aF774.0
aF767.0
aF807.0
aF829.0
aF804.0
aF780.0
aF805.0
aF800.0
aF808.0
aF791.0
aF780.0
aF784.0
aF785.0
aF812.0
aF776.0
aF770.0
aF808.0
aF780.0
aF803.0
aF777.0
aF802.0
aF781.0
aF808.0
aF779.0
aF759.0
aF827.0
aF808.0
aF788.0
aF764.0
aF794.0
aF712.0
aF832.0
aF755.0
aF800.0
aF780.0
aF723.0
aF771.0
aF800.0
aF820.0
aF799.0
aF793.0
aF802.0
aF815.0
aF772.0
aF815.0
aF801.0
aF803.0
aF839.0
aF816.0
aF830.0
aF751.0
aF814.0
aF818.0
aF775.0
aF761.0
aF819.0
aF775.0
aF800.0
aF775.0
aF786.0
aF815.0
aF821.0
aF811.0
aF784.0
aF792.0
aF804.0
aF784.0
aF788.0
aF826.0
asS'nsim_nonad'
p22
I10000
sS't_h'
p23
I0
sS't_s'
p24
I13
sS'r_nonad_rg'
p25
(lp26
F805.0
aF787.0
aF772.0
aF814.0
aF778.0
aF795.0
aF798.0
aF765.0
aF792.0
aF798.0
aF761.0
aF789.0
aF801.0
aF717.0
aF770.0
aF807.0
aF749.0
aF790.0
aF769.0
aF799.0
aF781.0
aF797.0
aF773.0
aF776.0
aF756.0
aF801.0
aF836.0
aF787.0
aF742.0
aF791.0
aF799.0
aF791.0
aF740.0
aF826.0
aF820.0
aF837.0
aF777.0
aF822.0
aF763.0
aF793.0
aF760.0
aF775.0
aF803.0
aF781.0
aF801.0
aF793.0
aF788.0
aF823.0
aF790.0
aF791.0
aF746.0
aF711.0
aF812.0
aF821.0
aF761.0
aF809.0
aF804.0
aF814.0
aF793.0
aF792.0
aF785.0
aF790.0
aF792.0
aF759.0
aF805.0
aF800.0
aF779.0
aF725.0
aF796.0
aF794.0
aF811.0
aF748.0
aF828.0
aF795.0
aF771.0
aF811.0
aF801.0
aF768.0
aF811.0
aF804.0
aF782.0
aF750.0
aF800.0
aF823.0
aF794.0
aF783.0
aF826.0
aF753.0
aF799.0
aF745.0
aF786.0
aF815.0
aF819.0
aF809.0
aF791.0
aF762.0
aF748.0
aF756.0
aF782.0
aF774.0
asS'workers'
p27
I7
sS'gamma'
p28
F1.0
sS'vcount'
p29
I1000
s.