(dp0
S'niter'
p1
I100
sS'v_ad'
p2
(lp3
I1
aI1
aI1
aI1
aI1
aI1
aI1
aI1
aI1
aI1
aI1
aI1
aI1
aI1
aI1
aI1
aI1
aI1
aI1
aI1
aI1
aI1
aI1
aI1
aI1
aI1
aI1
aI1
aI1
aI1
aI1
aI1
aI1
aI1
aI1
aI1
aI1
aI1
aI1
aI1
aI1
aI1
aI1
aI1
aI1
aI1
aI1
aI1
aI1
aI1
aI1
aI1
aI1
aI1
aI1
aI1
aI1
aI1
aI1
aI1
aI1
aI1
aI1
aI1
aI1
aI1
aI1
aI1
aI1
aI1
aI1
aI1
aI1
aI1
aI1
aI1
aI1
aI1
aI1
aI1
aI1
aI1
aI1
aI1
aI1
aI1
aI1
aI1
aI1
aI1
aI1
aI1
aI1
aI1
aI1
aI1
aI1
aI1
aI1
aI1
asS'trans'
p4
F0.009741868016951951
sS'ecount'
p5
I3994
sS'name'
p6
S'B_A_1000_2'
p7
sS't_m'
p8
I5
sS'v_nonad_g'
p9
(lp10
I0
asS'pedge'
p11
F0.01
sS'r_ad'
p12
(lp13
F1.0
aF-1.0
aF5.0
aF-1.0
aF-1.0
aF1.0
aF1.0
aF1.0
aF1.0
aF0.0
aF2.0
aF0.0
aF4.0
aF-1.0
aF4.0
aF1.0
aF-1.0
aF0.0
aF0.0
aF-1.0
aF1.0
aF1.0
aF1.0
aF-1.0
aF1.0
aF2.0
aF-1.0
aF-1.0
aF0.0
aF0.0
aF2.0
aF-1.0
aF-1.0
aF1.0
aF1.0
aF1.0
aF1.0
aF0.0
aF3.0
aF-1.0
aF1.0
aF2.0
aF0.0
aF2.0
aF-1.0
aF-1.0
aF2.0
aF0.0
aF1.0
aF2.0
aF-1.0
aF1.0
aF0.0
aF0.0
aF0.0
aF0.0
aF0.0
aF2.0
aF-1.0
aF1.0
aF0.0
aF1.0
aF2.0
aF1.0
aF-1.0
aF0.0
aF0.0
aF-1.0
aF-1.0
aF1.0
aF-1.0
aF2.0
aF0.0
aF1.0
aF-1.0
aF-1.0
aF0.0
aF1.0
aF-1.0
aF0.0
aF-1.0
aF1.0
aF-1.0
aF1.0
aF1.0
aF0.0
aF0.0
aF1.0
aF0.0
aF1.0
aF0.0
aF1.0
aF3.0
aF-1.0
aF1.0
aF2.0
aF3.0
aF2.0
aF0.0
aF1.0
asS'v_nonad_rg'
p14
(lp15
I0
asS'nsim_ad'
p16
I1000
sS'git'
p17
S'fcb943d'
p18
sS'kratio'
p19
I10
sS'r_nonad_g'
p20
(lp21
F1.0
aF-1.0
aF5.0
aF-1.0
aF-1.0
aF1.0
aF1.0
aF1.0
aF1.0
aF0.0
aF2.0
aF0.0
aF4.0
aF-1.0
aF4.0
aF1.0
aF-1.0
aF0.0
aF0.0
aF-1.0
aF1.0
aF1.0
aF1.0
aF-1.0
aF1.0
aF2.0
aF-1.0
aF-1.0
aF0.0
aF0.0
aF2.0
aF-1.0
aF-1.0
aF1.0
aF1.0
aF1.0
aF1.0
aF0.0
aF3.0
aF-1.0
aF1.0
aF2.0
aF0.0
aF2.0
aF-1.0
aF-1.0
aF2.0
aF0.0
aF1.0
aF2.0
aF-1.0
aF1.0
aF0.0
aF0.0
aF0.0
aF0.0
aF0.0
aF2.0
aF-1.0
aF1.0
aF0.0
aF1.0
aF2.0
aF1.0
aF-1.0
aF0.0
aF0.0
aF-1.0
aF-1.0
aF1.0
aF-1.0
aF2.0
aF0.0
aF1.0
aF-1.0
aF-1.0
aF0.0
aF1.0
aF-1.0
aF0.0
aF-1.0
aF1.0
aF-1.0
aF1.0
aF1.0
aF0.0
aF0.0
aF1.0
aF0.0
aF1.0
aF0.0
aF1.0
aF3.0
aF-1.0
aF1.0
aF2.0
aF3.0
aF2.0
aF0.0
aF1.0
asS'nsim_nonad'
p22
I10000
sS't_h'
p23
I0
sS't_s'
p24
I21
sS'r_nonad_rg'
p25
(lp26
F1.0
aF-1.0
aF5.0
aF-1.0
aF-1.0
aF1.0
aF1.0
aF1.0
aF1.0
aF0.0
aF2.0
aF0.0
aF4.0
aF-1.0
aF4.0
aF1.0
aF-1.0
aF0.0
aF0.0
aF-1.0
aF1.0
aF1.0
aF1.0
aF-1.0
aF1.0
aF2.0
aF-1.0
aF-1.0
aF0.0
aF0.0
aF2.0
aF-1.0
aF-1.0
aF1.0
aF1.0
aF1.0
aF1.0
aF0.0
aF3.0
aF-1.0
aF1.0
aF2.0
aF0.0
aF2.0
aF-1.0
aF-1.0
aF2.0
aF0.0
aF1.0
aF2.0
aF-1.0
aF1.0
aF0.0
aF0.0
aF0.0
aF0.0
aF0.0
aF2.0
aF-1.0
aF1.0
aF0.0
aF1.0
aF2.0
aF1.0
aF-1.0
aF0.0
aF0.0
aF-1.0
aF-1.0
aF1.0
aF-1.0
aF2.0
aF0.0
aF1.0
aF-1.0
aF-1.0
aF0.0
aF1.0
aF-1.0
aF0.0
aF-1.0
aF1.0
aF-1.0
aF1.0
aF1.0
aF0.0
aF0.0
aF1.0
aF0.0
aF1.0
aF0.0
aF1.0
aF3.0
aF-1.0
aF1.0
aF2.0
aF3.0
aF2.0
aF0.0
aF1.0
asS'workers'
p27
I7
sS'gamma'
p28
F2.0
sS'vcount'
p29
I1000
s.