(dp0
S'niter'
p1
I100
sS'v_ad'
p2
(lp3
I24
aI24
aI18
aI20
aI25
aI26
aI23
aI21
aI25
aI23
aI28
aI24
aI22
aI26
aI22
aI19
aI21
aI24
aI20
aI26
aI26
aI22
aI21
aI20
aI30
aI19
aI25
aI17
aI22
aI24
aI22
aI21
aI26
aI24
aI22
aI21
aI20
aI31
aI25
aI23
aI19
aI19
aI21
aI25
aI21
aI23
aI26
aI21
aI20
aI24
aI14
aI25
aI21
aI21
aI23
aI22
aI23
aI24
aI25
aI23
aI25
aI21
aI20
aI23
aI24
aI25
aI25
aI20
aI23
aI19
aI19
aI18
aI23
aI19
aI20
aI24
aI30
aI20
aI17
aI28
aI20
aI30
aI16
aI22
aI21
aI22
aI23
aI22
aI27
aI20
aI21
aI29
aI27
aI23
aI26
aI28
aI22
aI23
aI22
aI29
asS'trans'
p4
F0.009741868016951951
sS'ecount'
p5
I3994
sS'name'
p6
S'B_A_1000_2'
p7
sS't_m'
p8
I30
sS'v_nonad_g'
p9
(lp10
I0
aI1
aI2
aI33
aI24
aI9
aI10
aI6
aI12
aI8
aI15
aI7
aI71
aI16
aI29
asS'pedge'
p11
F0.05
sS'r_ad'
p12
(lp13
F30.0
aF19.0
aF27.0
aF29.0
aF20.0
aF27.0
aF30.0
aF21.0
aF28.0
aF25.0
aF29.0
aF13.0
aF39.0
aF35.0
aF33.0
aF28.0
aF46.0
aF26.0
aF22.0
aF23.0
aF10.0
aF34.0
aF38.0
aF28.0
aF17.0
aF50.0
aF31.0
aF28.0
aF37.0
aF33.0
aF34.0
aF42.0
aF21.0
aF29.0
aF38.0
aF24.0
aF37.0
aF17.0
aF16.0
aF41.0
aF43.0
aF34.0
aF17.0
aF22.0
aF20.0
aF47.0
aF22.0
aF28.0
aF50.0
aF30.0
aF35.0
aF29.0
aF28.0
aF23.0
aF26.0
aF30.0
aF20.0
aF27.0
aF28.0
aF42.0
aF24.0
aF19.0
aF15.0
aF18.0
aF18.0
aF14.0
aF39.0
aF20.0
aF24.0
aF31.0
aF24.0
aF32.0
aF27.0
aF33.0
aF36.0
aF22.0
aF19.0
aF36.0
aF38.0
aF30.0
aF35.0
aF14.0
aF48.0
aF23.0
aF47.0
aF26.0
aF25.0
aF22.0
aF23.0
aF30.0
aF45.0
aF30.0
aF32.0
aF37.0
aF22.0
aF34.0
aF46.0
aF27.0
aF32.0
aF23.0
asS'v_nonad_rg'
p14
(lp15
I52
aI156
aI8
aI3
aI16
aI5
aI25
aI9
aI61
aI6
aI71
aI17
aI24
aI2
aI40
aI77
aI105
aI29
aI1
aI33
aI7
aI15
aI12
aI10
aI0
asS'nsim_ad'
p16
I1000
sS'git'
p17
S'fcb943d'
p18
sS'kratio'
p19
I10
sS'r_nonad_g'
p20
(lp21
F29.0
aF14.0
aF30.0
aF28.0
aF24.0
aF30.0
aF32.0
aF19.0
aF26.0
aF28.0
aF27.0
aF16.0
aF33.0
aF32.0
aF31.0
aF24.0
aF33.0
aF13.0
aF20.0
aF31.0
aF19.0
aF27.0
aF35.0
aF25.0
aF24.0
aF31.0
aF42.0
aF23.0
aF33.0
aF36.0
aF25.0
aF37.0
aF18.0
aF26.0
aF38.0
aF21.0
aF32.0
aF22.0
aF20.0
aF34.0
aF36.0
aF34.0
aF18.0
aF26.0
aF20.0
aF48.0
aF27.0
aF22.0
aF45.0
aF34.0
aF21.0
aF29.0
aF26.0
aF20.0
aF24.0
aF29.0
aF19.0
aF20.0
aF29.0
aF38.0
aF23.0
aF16.0
aF15.0
aF16.0
aF20.0
aF22.0
aF35.0
aF19.0
aF26.0
aF27.0
aF22.0
aF29.0
aF29.0
aF23.0
aF23.0
aF23.0
aF25.0
aF34.0
aF33.0
aF34.0
aF37.0
aF25.0
aF38.0
aF22.0
aF46.0
aF25.0
aF23.0
aF24.0
aF28.0
aF28.0
aF39.0
aF36.0
aF28.0
aF39.0
aF26.0
aF34.0
aF38.0
aF30.0
aF26.0
aF23.0
asS'nsim_nonad'
p22
I10000
sS't_h'
p23
I0
sS't_s'
p24
I55
sS'r_nonad_rg'
p25
(lp26
F28.0
aF11.0
aF25.0
aF27.0
aF22.0
aF28.0
aF32.0
aF11.0
aF20.0
aF27.0
aF19.0
aF15.0
aF32.0
aF34.0
aF33.0
aF20.0
aF37.0
aF11.0
aF12.0
aF27.0
aF11.0
aF20.0
aF31.0
aF20.0
aF20.0
aF28.0
aF40.0
aF21.0
aF29.0
aF30.0
aF24.0
aF32.0
aF13.0
aF21.0
aF32.0
aF22.0
aF29.0
aF12.0
aF13.0
aF33.0
aF29.0
aF30.0
aF15.0
aF19.0
aF14.0
aF40.0
aF18.0
aF23.0
aF41.0
aF23.0
aF16.0
aF27.0
aF19.0
aF13.0
aF20.0
aF21.0
aF13.0
aF16.0
aF20.0
aF30.0
aF18.0
aF11.0
aF11.0
aF15.0
aF11.0
aF15.0
aF28.0
aF14.0
aF22.0
aF20.0
aF19.0
aF22.0
aF25.0
aF26.0
aF20.0
aF24.0
aF24.0
aF34.0
aF30.0
aF28.0
aF30.0
aF20.0
aF36.0
aF16.0
aF40.0
aF23.0
aF18.0
aF18.0
aF21.0
aF21.0
aF36.0
aF27.0
aF29.0
aF29.0
aF18.0
aF37.0
aF33.0
aF25.0
aF22.0
aF19.0
asS'workers'
p27
I7
sS'gamma'
p28
F2.0
sS'vcount'
p29
I1000
s.