(dp0
S'niter'
p1
I100
sS'v_ad'
p2
(lp3
I200
aI200
aI200
aI200
aI200
aI200
aI200
aI200
aI200
aI200
aI200
aI200
aI200
aI200
aI200
aI200
aI200
aI200
aI200
aI200
aI200
aI200
aI200
aI200
aI200
aI200
aI200
aI200
aI200
aI200
aI200
aI200
aI200
aI200
aI200
aI200
aI200
aI200
aI200
aI200
aI200
aI200
aI200
aI200
aI200
aI200
aI200
aI200
aI200
aI200
aI200
aI200
aI200
aI200
aI200
aI200
aI200
aI200
aI200
aI200
aI200
aI200
aI200
aI200
aI200
aI200
aI200
aI200
aI200
aI200
aI200
aI200
aI200
aI200
aI200
aI200
aI200
aI200
aI200
aI200
aI200
aI200
aI200
aI200
aI200
aI200
aI200
aI200
aI200
aI200
aI200
aI200
aI200
aI200
aI200
aI200
aI200
aI200
aI200
aI200
asS'trans'
p4
F0.8047941557912676
sS'ecount'
p5
I13033
sS'name'
p6
S'SNAP_GR_1000'
p7
sS't_m'
p8
I48
sS'v_nonad_g'
p9
(lp10
I8
aI12
aI105
aI75
aI127
aI172
aI4
aI61
aI89
aI74
aI151
aI136
aI184
aI152
aI149
aI40
aI177
aI427
aI305
aI130
aI319
aI249
aI120
aI239
aI41
aI145
aI167
aI222
aI129
aI82
aI144
aI368
aI153
aI108
aI143
aI299
aI253
aI306
aI257
aI466
aI168
aI163
aI313
aI174
aI171
aI389
aI364
aI380
aI162
aI418
aI103
aI797
aI340
aI150
aI384
aI140
aI530
aI422
aI285
aI497
aI214
aI142
aI242
aI187
aI218
aI221
aI395
aI312
aI265
aI468
aI243
aI444
aI413
aI431
aI708
aI350
aI147
aI289
aI801
aI428
aI403
aI128
aI315
aI339
aI325
aI741
aI469
aI293
aI479
aI297
aI154
aI131
aI344
aI146
aI283
aI376
aI337
aI318
aI275
aI563
aI505
aI209
aI657
aI87
aI559
aI160
aI292
aI432
aI255
aI533
aI274
aI518
aI499
aI511
aI298
aI417
aI541
aI461
aI248
aI844
aI640
aI159
aI309
aI599
aI419
aI436
aI544
aI685
aI668
aI808
aI181
aI195
aI281
aI448
aI311
aI201
aI321
aI371
aI478
aI394
aI357
aI500
aI388
aI939
aI760
aI393
aI506
aI237
aI256
aI695
aI556
aI412
aI604
aI682
aI926
aI254
aI363
aI353
aI345
aI588
aI526
aI521
aI635
aI802
aI430
aI445
aI382
aI290
aI491
aI753
aI644
aI853
aI647
aI929
aI933
aI286
aI707
aI732
aI558
aI955
aI338
aI366
aI449
aI860
aI751
aI77
aI831
aI516
aI411
aI987
aI816
aI148
aI632
aI634
aI833
aI477
aI446
aI950
aI459
aI747
asS'pedge'
p11
F0.05
sS'r_ad'
p12
(lp13
F254.0
aF235.0
aF252.0
aF261.0
aF262.0
aF277.0
aF266.0
aF266.0
aF254.0
aF265.0
aF261.0
aF269.0
aF265.0
aF288.0
aF269.0
aF260.0
aF259.0
aF240.0
aF267.0
aF247.0
aF298.0
aF250.0
aF253.0
aF258.0
aF269.0
aF243.0
aF286.0
aF242.0
aF273.0
aF261.0
aF248.0
aF244.0
aF248.0
aF263.0
aF266.0
aF272.0
aF292.0
aF247.0
aF251.0
aF264.0
aF265.0
aF244.0
aF269.0
aF297.0
aF273.0
aF256.0
aF241.0
aF270.0
aF300.0
aF279.0
aF289.0
aF263.0
aF266.0
aF252.0
aF266.0
aF233.0
aF247.0
aF270.0
aF252.0
aF260.0
aF220.0
aF252.0
aF272.0
aF241.0
aF282.0
aF279.0
aF279.0
aF262.0
aF252.0
aF259.0
aF258.0
aF267.0
aF237.0
aF262.0
aF248.0
aF219.0
aF264.0
aF260.0
aF283.0
aF247.0
aF249.0
aF249.0
aF248.0
aF255.0
aF262.0
aF266.0
aF288.0
aF267.0
aF266.0
aF255.0
aF250.0
aF285.0
aF254.0
aF257.0
aF239.0
aF284.0
aF261.0
aF263.0
aF239.0
aF271.0
asS'v_nonad_rg'
p14
(lp15
I20
aI104
aI281
aI225
aI334
aI36
aI329
aI240
aI56
aI94
aI65
aI277
aI427
aI206
aI227
aI98
aI184
aI295
aI40
aI226
aI306
aI406
aI578
aI157
aI165
aI145
aI136
aI231
aI411
aI259
aI529
aI446
aI244
aI383
aI129
aI150
aI315
aI797
aI402
aI77
aI567
aI164
aI801
aI443
aI421
aI365
aI75
aI302
aI208
aI481
aI182
aI173
aI963
aI243
aI148
aI497
aI128
aI488
aI335
aI809
aI52
aI754
aI418
aI168
aI316
aI409
aI479
aI138
aI735
aI166
aI755
aI566
aI747
aI556
aI620
aI668
aI275
aI874
aI608
aI296
aI144
aI463
aI703
aI432
aI390
aI319
aI875
aI344
aI163
aI321
aI380
aI179
aI658
aI487
aI233
aI350
aI854
aI451
aI131
aI386
aI574
aI550
aI813
aI300
aI778
aI837
aI221
aI563
aI201
aI252
aI423
aI297
aI570
aI413
aI160
aI485
aI152
aI562
aI685
aI193
aI833
aI653
aI209
aI877
aI617
aI274
aI162
aI253
aI741
aI120
aI444
aI977
aI178
aI924
aI675
aI256
aI614
aI318
aI519
aI322
aI382
aI454
aI725
aI600
aI187
aI781
aI825
aI460
aI419
aI249
aI234
aI844
aI959
aI103
aI640
aI325
aI919
aI95
aI972
aI582
aI699
aI229
aI891
aI500
aI708
aI289
aI599
aI942
aI695
aI396
aI533
aI242
aI983
aI856
aI721
aI938
aI288
aI591
aI466
aI339
aI544
aI472
aI602
aI936
aI976
aI526
aI861
aI920
aI356
aI41
aI707
aI745
aI431
aI417
aI430
aI750
aI953
aI824
aI909
aI412
asS'nsim_ad'
p16
I1000
sS'git'
p17
S'f19acc5'
p18
sS'kratio'
p19
I5
sS'r_nonad_g'
p20
(lp21
F230.0
aF212.0
aF212.0
aF229.0
aF226.0
aF231.0
aF228.0
aF217.0
aF209.0
aF241.0
aF228.0
aF247.0
aF225.0
aF228.0
aF227.0
aF224.0
aF215.0
aF215.0
aF224.0
aF221.0
aF269.0
aF205.0
aF207.0
aF212.0
aF225.0
aF225.0
aF248.0
aF205.0
aF222.0
aF217.0
aF237.0
aF201.0
aF214.0
aF247.0
aF216.0
aF206.0
aF238.0
aF212.0
aF218.0
aF224.0
aF225.0
aF209.0
aF221.0
aF259.0
aF260.0
aF240.0
aF203.0
aF241.0
aF249.0
aF213.0
aF238.0
aF194.0
aF232.0
aF208.0
aF215.0
aF214.0
aF227.0
aF242.0
aF201.0
aF225.0
aF195.0
aF209.0
aF218.0
aF217.0
aF246.0
aF225.0
aF242.0
aF244.0
aF233.0
aF206.0
aF237.0
aF202.0
aF215.0
aF213.0
aF216.0
aF170.0
aF228.0
aF226.0
aF238.0
aF171.0
aF240.0
aF229.0
aF194.0
aF243.0
aF220.0
aF221.0
aF250.0
aF229.0
aF244.0
aF228.0
aF219.0
aF243.0
aF223.0
aF216.0
aF207.0
aF254.0
aF229.0
aF176.0
aF238.0
aF223.0
asS'nsim_nonad'
p22
I10000
sS't_h'
p23
I4
sS't_s'
p24
I43
sS'r_nonad_rg'
p25
(lp26
F205.0
aF219.0
aF208.0
aF247.0
aF215.0
aF223.0
aF220.0
aF199.0
aF232.0
aF215.0
aF195.0
aF238.0
aF214.0
aF223.0
aF237.0
aF213.0
aF204.0
aF189.0
aF217.0
aF189.0
aF249.0
aF188.0
aF183.0
aF219.0
aF217.0
aF218.0
aF231.0
aF195.0
aF202.0
aF189.0
aF223.0
aF191.0
aF214.0
aF215.0
aF211.0
aF215.0
aF216.0
aF216.0
aF216.0
aF230.0
aF213.0
aF219.0
aF226.0
aF229.0
aF249.0
aF219.0
aF189.0
aF229.0
aF222.0
aF211.0
aF232.0
aF201.0
aF214.0
aF205.0
aF224.0
aF222.0
aF201.0
aF243.0
aF224.0
aF207.0
aF196.0
aF198.0
aF204.0
aF216.0
aF251.0
aF223.0
aF230.0
aF200.0
aF197.0
aF205.0
aF230.0
aF208.0
aF205.0
aF223.0
aF220.0
aF186.0
aF226.0
aF208.0
aF225.0
aF204.0
aF226.0
aF219.0
aF202.0
aF215.0
aF215.0
aF210.0
aF213.0
aF211.0
aF229.0
aF193.0
aF223.0
aF238.0
aF227.0
aF215.0
aF199.0
aF227.0
aF222.0
aF200.0
aF205.0
aF207.0
asS'workers'
p27
I7
sS'gamma'
p28
F1.0
sS'vcount'
p29
I1000
s.