(dp0
S'niter'
p1
I100
sS'v_ad'
p2
(lp3
I72
aI88
aI80
aI62
aI86
aI93
aI66
aI69
aI80
aI68
aI86
aI66
aI80
aI69
aI71
aI63
aI71
aI80
aI68
aI73
aI75
aI77
aI68
aI87
aI66
aI83
aI75
aI77
aI92
aI69
aI76
aI76
aI72
aI89
aI69
aI85
aI51
aI68
aI58
aI89
aI78
aI68
aI73
aI86
aI84
aI66
aI91
aI85
aI72
aI72
aI85
aI75
aI69
aI73
aI73
aI89
aI64
aI57
aI70
aI70
aI76
aI86
aI77
aI73
aI71
aI69
aI84
aI58
aI69
aI65
aI67
aI70
aI83
aI65
aI68
aI82
aI62
aI83
aI66
aI76
aI79
aI68
aI85
aI72
aI73
aI78
aI70
aI79
aI75
aI73
aI72
aI74
aI79
aI73
aI55
aI71
aI84
aI72
aI69
aI95
asS'trans'
p4
F0.8047941557912676
sS'ecount'
p5
I13033
sS'name'
p6
S'SNAP_GR_1000'
p7
sS't_m'
p8
I6
sS'v_nonad_g'
p9
(lp10
I48
aI172
aI79
aI424
aI391
aI469
aI783
aI393
aI462
aI544
aI641
aI146
aI284
aI518
aI846
aI864
aI256
aI657
aI419
aI845
aI948
aI851
aI547
aI933
aI844
aI929
aI852
aI504
aI581
aI695
aI715
aI930
aI727
aI900
aI939
aI673
aI484
aI788
aI945
aI756
aI785
aI649
aI631
aI500
asS'pedge'
p11
F0.3
sS'r_ad'
p12
(lp13
F826.0
aF812.0
aF820.0
aF847.0
aF818.0
aF803.0
aF839.0
aF834.0
aF833.0
aF837.0
aF802.0
aF832.0
aF829.0
aF830.0
aF828.0
aF849.0
aF845.0
aF826.0
aF842.0
aF818.0
aF836.0
aF818.0
aF839.0
aF812.0
aF847.0
aF836.0
aF851.0
aF822.0
aF806.0
aF831.0
aF827.0
aF824.0
aF835.0
aF813.0
aF837.0
aF828.0
aF850.0
aF844.0
aF846.0
aF811.0
aF817.0
aF832.0
aF829.0
aF821.0
aF824.0
aF842.0
aF807.0
aF822.0
aF827.0
aF840.0
aF817.0
aF843.0
aF832.0
aF837.0
aF836.0
aF811.0
aF843.0
aF845.0
aF822.0
aF845.0
aF831.0
aF825.0
aF828.0
aF836.0
aF830.0
aF837.0
aF818.0
aF856.0
aF832.0
aF837.0
aF827.0
aF837.0
aF827.0
aF839.0
aF836.0
aF820.0
aF842.0
aF823.0
aF830.0
aF830.0
aF825.0
aF842.0
aF805.0
aF836.0
aF836.0
aF815.0
aF828.0
aF827.0
aF830.0
aF837.0
aF835.0
aF818.0
aF831.0
aF819.0
aF857.0
aF848.0
aF816.0
aF835.0
aF829.0
aF806.0
asS'v_nonad_rg'
p14
(lp15
I34
aI109
aI704
aI797
aI920
aI921
aI837
aI175
aI218
aI650
aI422
aI995
aI605
aI809
aI939
aI927
aI694
aI475
aI641
aI877
aI949
aI867
aI716
aI390
aI661
aI541
aI395
aI727
aI782
aI901
aI394
aI748
aI435
aI852
aI523
aI900
aI713
aI969
aI638
aI643
aI717
aI959
aI816
aI910
aI695
aI756
aI929
aI666
aI631
aI715
aI673
aI999
asS'nsim_ad'
p16
I1000
sS'git'
p17
S'f19acc5'
p18
sS'kratio'
p19
I5
sS'r_nonad_g'
p20
(lp21
F773.0
aF746.0
aF784.0
aF797.0
aF782.0
aF762.0
aF800.0
aF784.0
aF798.0
aF802.0
aF759.0
aF783.0
aF780.0
aF805.0
aF789.0
aF809.0
aF807.0
aF764.0
aF800.0
aF771.0
aF787.0
aF783.0
aF795.0
aF746.0
aF792.0
aF766.0
aF803.0
aF769.0
aF755.0
aF792.0
aF783.0
aF782.0
aF789.0
aF757.0
aF782.0
aF782.0
aF798.0
aF803.0
aF793.0
aF750.0
aF772.0
aF796.0
aF780.0
aF762.0
aF754.0
aF789.0
aF756.0
aF769.0
aF775.0
aF799.0
aF779.0
aF799.0
aF798.0
aF794.0
aF785.0
aF773.0
aF802.0
aF794.0
aF781.0
aF811.0
aF798.0
aF778.0
aF800.0
aF789.0
aF788.0
aF794.0
aF769.0
aF802.0
aF798.0
aF799.0
aF754.0
aF796.0
aF771.0
aF798.0
aF790.0
aF748.0
aF799.0
aF774.0
aF793.0
aF733.0
aF780.0
aF802.0
aF763.0
aF789.0
aF799.0
aF764.0
aF786.0
aF778.0
aF760.0
aF796.0
aF792.0
aF772.0
aF769.0
aF776.0
aF804.0
aF802.0
aF771.0
aF784.0
aF782.0
aF753.0
asS'nsim_nonad'
p22
I10000
sS't_h'
p23
I1
sS't_s'
p24
I48
sS'r_nonad_rg'
p25
(lp26
F768.0
aF754.0
aF782.0
aF791.0
aF769.0
aF757.0
aF800.0
aF792.0
aF793.0
aF788.0
aF763.0
aF769.0
aF799.0
aF797.0
aF783.0
aF803.0
aF802.0
aF721.0
aF798.0
aF770.0
aF776.0
aF783.0
aF796.0
aF757.0
aF780.0
aF763.0
aF788.0
aF772.0
aF761.0
aF788.0
aF782.0
aF784.0
aF792.0
aF770.0
aF794.0
aF779.0
aF802.0
aF808.0
aF799.0
aF746.0
aF772.0
aF788.0
aF776.0
aF764.0
aF745.0
aF803.0
aF754.0
aF768.0
aF784.0
aF795.0
aF776.0
aF802.0
aF795.0
aF794.0
aF778.0
aF764.0
aF798.0
aF789.0
aF784.0
aF801.0
aF800.0
aF777.0
aF780.0
aF791.0
aF782.0
aF797.0
aF763.0
aF797.0
aF799.0
aF802.0
aF750.0
aF791.0
aF780.0
aF793.0
aF777.0
aF769.0
aF800.0
aF780.0
aF788.0
aF734.0
aF775.0
aF797.0
aF757.0
aF790.0
aF797.0
aF761.0
aF780.0
aF773.0
aF754.0
aF791.0
aF785.0
aF773.0
aF772.0
aF776.0
aF811.0
aF788.0
aF768.0
aF791.0
aF784.0
aF754.0
asS'workers'
p27
I7
sS'gamma'
p28
F1.0
sS'vcount'
p29
I1000
s.