(dp0
S'niter'
p1
I100
sS'v_ad'
p2
(lp3
I200
aI200
aI200
aI200
aI200
aI200
aI200
aI200
aI200
aI200
aI200
aI200
aI200
aI200
aI200
aI200
aI200
aI200
aI200
aI200
aI200
aI200
aI200
aI200
aI200
aI200
aI200
aI200
aI200
aI200
aI200
aI200
aI200
aI200
aI200
aI200
aI200
aI200
aI200
aI200
aI200
aI200
aI200
aI200
aI200
aI200
aI200
aI200
aI200
aI200
aI200
aI200
aI200
aI200
aI200
aI200
aI200
aI200
aI200
aI200
aI200
aI200
aI200
aI200
aI200
aI200
aI200
aI200
aI200
aI200
aI200
aI200
aI200
aI200
aI200
aI200
aI200
aI200
aI200
aI200
aI200
aI200
aI200
aI200
aI200
aI200
aI200
aI200
aI200
aI200
aI200
aI200
aI200
aI200
aI200
aI200
aI200
aI200
aI200
aI200
asS'trans'
p4
F0.8047941557912676
sS'ecount'
p5
I13033
sS'name'
p6
S'SNAP_GR_1000'
p7
sS't_m'
p8
I34
sS'v_nonad_g'
p9
(lp10
I0
aI3
aI8
aI5
aI12
aI4
aI2
aI23
aI6
aI79
aI49
aI1
aI51
aI104
aI10
aI75
aI65
aI110
aI9
aI67
aI93
aI74
aI127
aI7
aI66
aI98
aI172
aI136
aI11
aI62
aI145
aI152
aI106
aI149
aI219
aI40
aI53
aI151
aI115
aI129
aI13
aI82
aI184
aI103
aI54
aI177
aI81
aI185
aI21
aI120
aI202
aI138
aI167
aI41
aI305
aI57
aI368
aI174
aI333
aI239
aI144
aI119
aI163
aI130
aI259
aI183
aI224
aI15
aI189
aI257
aI143
aI153
aI306
aI424
aI55
aI319
aI168
aI299
aI431
aI253
aI88
aI474
aI171
aI418
aI266
aI173
aI140
aI220
aI17
aI213
aI384
aI285
aI162
aI243
aI413
aI434
aI349
aI242
aI58
aI229
aI179
aI142
aI380
aI109
aI391
aI478
aI154
aI450
aI279
aI197
aI48
aI212
aI383
aI783
aI469
aI147
aI422
aI708
aI157
aI187
aI332
aI182
aI389
aI128
aI505
aI59
aI313
aI312
aI403
aI428
aI150
aI298
aI20
aI85
aI231
aI254
aI293
aI466
aI497
aI617
aI289
aI801
aI350
aI210
aI340
aI339
aI297
aI226
aI300
aI217
aI365
aI283
aI146
aI797
aI563
aI344
aI528
aI131
aI479
aI141
aI402
aI318
aI347
aI160
aI399
aI292
aI436
aI657
aI511
aI518
aI499
aI660
aI52
aI680
aI640
aI689
aI274
aI395
aI533
aI101
aI544
aI541
aI442
aI209
aI271
aI421
aI951
aI337
aI419
aI444
aI608
aI668
aI353
aI192
aI398
aI248
aI204
aI309
aI417
aI582
asS'pedge'
p11
F0.01
sS'r_ad'
p12
(lp13
F44.0
aF44.0
aF41.0
aF37.0
aF35.0
aF46.0
aF52.0
aF36.0
aF50.0
aF30.0
aF46.0
aF40.0
aF44.0
aF55.0
aF39.0
aF56.0
aF45.0
aF40.0
aF48.0
aF47.0
aF32.0
aF45.0
aF50.0
aF40.0
aF54.0
aF36.0
aF47.0
aF52.0
aF47.0
aF35.0
aF43.0
aF51.0
aF34.0
aF37.0
aF44.0
aF44.0
aF40.0
aF45.0
aF39.0
aF47.0
aF45.0
aF54.0
aF50.0
aF40.0
aF45.0
aF51.0
aF53.0
aF49.0
aF45.0
aF41.0
aF54.0
aF45.0
aF45.0
aF44.0
aF56.0
aF50.0
aF52.0
aF61.0
aF50.0
aF45.0
aF53.0
aF46.0
aF48.0
aF42.0
aF45.0
aF42.0
aF58.0
aF34.0
aF37.0
aF38.0
aF37.0
aF51.0
aF50.0
aF42.0
aF36.0
aF60.0
aF37.0
aF50.0
aF47.0
aF44.0
aF47.0
aF52.0
aF41.0
aF42.0
aF53.0
aF34.0
aF51.0
aF37.0
aF48.0
aF40.0
aF48.0
aF28.0
aF64.0
aF38.0
aF44.0
aF42.0
aF45.0
aF42.0
aF32.0
aF49.0
asS'v_nonad_rg'
p14
(lp15
I26
aI68
aI147
aI117
aI230
aI62
aI134
aI54
aI19
aI84
aI4
aI63
aI108
aI28
aI216
aI137
aI225
aI31
aI34
aI64
aI199
aI36
aI180
aI73
aI349
aI41
aI3
aI282
aI135
aI185
aI89
aI90
aI211
aI94
aI8
aI151
aI189
aI271
aI241
aI220
aI129
aI72
aI352
aI13
aI260
aI429
aI10
aI47
aI259
aI75
aI48
aI244
aI125
aI12
aI402
aI86
aI35
aI411
aI173
aI485
aI164
aI153
aI5
aI93
aI2
aI1
aI140
aI243
aI461
aI163
aI262
aI478
aI194
aI406
aI202
aI253
aI6
aI122
aI240
aI58
aI74
aI83
aI475
aI284
aI491
aI217
aI684
aI144
aI81
aI100
aI384
aI364
aI187
aI527
aI242
aI130
aI160
aI332
aI142
aI168
aI874
aI617
aI179
aI380
aI418
aI760
aI198
aI218
aI755
aI315
aI102
aI505
aI98
aI407
aI399
aI312
aI57
aI915
aI377
aI378
aI231
aI579
aI305
aI615
aI463
aI431
aI143
aI318
aI227
aI103
aI141
aI361
aI166
aI347
aI783
aI526
aI309
aI376
aI468
aI534
aI136
aI327
aI614
aI395
aI150
aI620
aI196
aI640
aI277
aI273
aI916
aI229
aI940
aI660
aI389
aI281
aI550
aI80
aI509
aI382
aI708
aI379
aI657
aI437
aI159
aI14
aI177
aI422
aI105
aI954
aI638
aI239
aI540
aI398
aI499
aI175
aI289
aI444
aI535
aI336
aI555
aI449
aI238
aI366
aI394
aI618
aI735
aI606
aI302
aI128
aI951
aI176
aI76
aI152
aI564
aI826
aI446
aI668
aI689
aI528
asS'nsim_ad'
p16
I1000
sS'git'
p17
S'f19acc5'
p18
sS'kratio'
p19
I5
sS'r_nonad_g'
p20
(lp21
F32.0
aF28.0
aF30.0
aF26.0
aF38.0
aF38.0
aF35.0
aF40.0
aF46.0
aF37.0
aF39.0
aF38.0
aF29.0
aF38.0
aF30.0
aF31.0
aF29.0
aF46.0
aF40.0
aF36.0
aF26.0
aF35.0
aF30.0
aF29.0
aF49.0
aF30.0
aF31.0
aF41.0
aF34.0
aF29.0
aF36.0
aF41.0
aF33.0
aF38.0
aF21.0
aF31.0
aF26.0
aF36.0
aF35.0
aF29.0
aF31.0
aF35.0
aF47.0
aF36.0
aF31.0
aF42.0
aF34.0
aF36.0
aF37.0
aF30.0
aF39.0
aF35.0
aF43.0
aF40.0
aF43.0
aF39.0
aF33.0
aF31.0
aF46.0
aF24.0
aF41.0
aF31.0
aF38.0
aF24.0
aF33.0
aF30.0
aF48.0
aF33.0
aF30.0
aF35.0
aF33.0
aF40.0
aF34.0
aF30.0
aF29.0
aF30.0
aF28.0
aF27.0
aF37.0
aF34.0
aF31.0
aF28.0
aF43.0
aF29.0
aF29.0
aF28.0
aF43.0
aF30.0
aF35.0
aF31.0
aF52.0
aF31.0
aF36.0
aF27.0
aF31.0
aF30.0
aF46.0
aF28.0
aF35.0
aF38.0
asS'nsim_nonad'
p22
I10000
sS't_h'
p23
I9
sS't_s'
p24
I55
sS'r_nonad_rg'
p25
(lp26
F29.0
aF29.0
aF31.0
aF32.0
aF39.0
aF35.0
aF24.0
aF34.0
aF34.0
aF34.0
aF55.0
aF30.0
aF26.0
aF39.0
aF34.0
aF28.0
aF46.0
aF35.0
aF34.0
aF35.0
aF22.0
aF37.0
aF37.0
aF18.0
aF45.0
aF29.0
aF38.0
aF39.0
aF35.0
aF32.0
aF34.0
aF39.0
aF36.0
aF32.0
aF31.0
aF35.0
aF25.0
aF34.0
aF42.0
aF32.0
aF32.0
aF40.0
aF41.0
aF30.0
aF29.0
aF34.0
aF27.0
aF38.0
aF31.0
aF33.0
aF30.0
aF31.0
aF35.0
aF37.0
aF34.0
aF32.0
aF29.0
aF36.0
aF37.0
aF34.0
aF37.0
aF32.0
aF56.0
aF25.0
aF33.0
aF35.0
aF48.0
aF30.0
aF34.0
aF26.0
aF22.0
aF25.0
aF37.0
aF28.0
aF15.0
aF30.0
aF28.0
aF42.0
aF34.0
aF32.0
aF31.0
aF28.0
aF44.0
aF28.0
aF40.0
aF35.0
aF31.0
aF28.0
aF43.0
aF37.0
aF40.0
aF26.0
aF35.0
aF31.0
aF38.0
aF31.0
aF32.0
aF29.0
aF27.0
aF35.0
asS'workers'
p27
I7
sS'gamma'
p28
F1.0
sS'vcount'
p29
I1000
s.