(dp0
S'niter'
p1
I100
sS'v_ad'
p2
(lp3
I14
aI15
aI17
aI19
aI18
aI18
aI27
aI19
aI16
aI19
aI15
aI11
aI15
aI13
aI14
aI19
aI13
aI20
aI21
aI25
aI22
aI21
aI12
aI17
aI15
aI22
aI12
aI19
aI25
aI22
aI16
aI24
aI18
aI22
aI14
aI18
aI13
aI15
aI10
aI16
aI16
aI11
aI12
aI21
aI16
aI21
aI16
aI19
aI29
aI14
aI26
aI19
aI15
aI20
aI24
aI15
aI12
aI18
aI18
aI17
aI13
aI20
aI21
aI14
aI9
aI16
aI12
aI15
aI20
aI23
aI19
aI21
aI18
aI21
aI17
aI16
aI19
aI21
aI13
aI17
aI13
aI17
aI22
aI18
aI19
aI17
aI18
aI19
aI19
aI16
aI15
aI15
aI13
aI19
aI15
aI17
aI17
aI20
aI18
aI22
asS'trans'
p4
F0.8047941557912676
sS'ecount'
p5
I13033
sS'name'
p6
S'SNAP_GR_1000'
p7
sS't_m'
p8
I24
sS'v_nonad_g'
p9
(lp10
I166
aI172
aI422
aI78
aI776
aI910
aI635
aI852
aI704
aI866
aI651
aI930
aI900
aI581
asS'pedge'
p11
F0.5
sS'r_ad'
p12
(lp13
F932.0
aF936.0
aF935.0
aF930.0
aF932.0
aF921.0
aF917.0
aF933.0
aF930.0
aF922.0
aF939.0
aF930.0
aF936.0
aF934.0
aF936.0
aF926.0
aF934.0
aF935.0
aF930.0
aF919.0
aF924.0
aF931.0
aF938.0
aF938.0
aF937.0
aF925.0
aF947.0
aF931.0
aF929.0
aF930.0
aF935.0
aF934.0
aF927.0
aF934.0
aF928.0
aF930.0
aF942.0
aF933.0
aF945.0
aF935.0
aF929.0
aF943.0
aF932.0
aF933.0
aF932.0
aF932.0
aF931.0
aF926.0
aF911.0
aF939.0
aF924.0
aF926.0
aF925.0
aF919.0
aF918.0
aF939.0
aF935.0
aF929.0
aF932.0
aF925.0
aF946.0
aF925.0
aF928.0
aF926.0
aF938.0
aF933.0
aF931.0
aF931.0
aF931.0
aF925.0
aF925.0
aF927.0
aF938.0
aF925.0
aF934.0
aF922.0
aF923.0
aF931.0
aF930.0
aF944.0
aF929.0
aF935.0
aF928.0
aF928.0
aF930.0
aF932.0
aF931.0
aF932.0
aF922.0
aF925.0
aF929.0
aF929.0
aF935.0
aF924.0
aF933.0
aF929.0
aF924.0
aF926.0
aF935.0
aF926.0
asS'v_nonad_rg'
p14
(lp15
I25
aI407
aI737
aI111
aI715
aI218
aI962
aI706
aI945
aI857
aI852
aI639
aI930
aI846
aI581
aI900
asS'nsim_ad'
p16
I1000
sS'git'
p17
S'f19acc5'
p18
sS'kratio'
p19
I5
sS'r_nonad_g'
p20
(lp21
F919.0
aF916.0
aF920.0
aF916.0
aF895.0
aF908.0
aF895.0
aF916.0
aF921.0
aF914.0
aF922.0
aF918.0
aF925.0
aF923.0
aF925.0
aF915.0
aF924.0
aF915.0
aF919.0
aF899.0
aF909.0
aF918.0
aF925.0
aF923.0
aF913.0
aF905.0
aF931.0
aF918.0
aF912.0
aF905.0
aF922.0
aF915.0
aF919.0
aF918.0
aF915.0
aF916.0
aF931.0
aF925.0
aF938.0
aF921.0
aF916.0
aF936.0
aF920.0
aF928.0
aF918.0
aF916.0
aF917.0
aF913.0
aF890.0
aF927.0
aF916.0
aF910.0
aF918.0
aF906.0
aF898.0
aF923.0
aF927.0
aF908.0
aF912.0
aF915.0
aF924.0
aF907.0
aF909.0
aF914.0
aF928.0
aF917.0
aF915.0
aF903.0
aF905.0
aF909.0
aF908.0
aF909.0
aF904.0
aF904.0
aF911.0
aF909.0
aF907.0
aF909.0
aF911.0
aF925.0
aF921.0
aF927.0
aF918.0
aF913.0
aF914.0
aF923.0
aF909.0
aF921.0
aF909.0
aF914.0
aF922.0
aF917.0
aF928.0
aF914.0
aF924.0
aF915.0
aF897.0
aF916.0
aF911.0
aF907.0
asS'nsim_nonad'
p22
I10000
sS't_h'
p23
I1
sS't_s'
p24
I44
sS'r_nonad_rg'
p25
(lp26
F917.0
aF915.0
aF917.0
aF918.0
aF896.0
aF905.0
aF893.0
aF913.0
aF918.0
aF912.0
aF923.0
aF915.0
aF924.0
aF925.0
aF926.0
aF910.0
aF923.0
aF915.0
aF919.0
aF897.0
aF910.0
aF917.0
aF924.0
aF923.0
aF913.0
aF901.0
aF929.0
aF918.0
aF914.0
aF908.0
aF920.0
aF915.0
aF915.0
aF920.0
aF911.0
aF914.0
aF928.0
aF923.0
aF936.0
aF920.0
aF916.0
aF932.0
aF918.0
aF927.0
aF920.0
aF919.0
aF914.0
aF910.0
aF889.0
aF925.0
aF911.0
aF914.0
aF916.0
aF904.0
aF896.0
aF922.0
aF923.0
aF911.0
aF915.0
aF915.0
aF923.0
aF906.0
aF907.0
aF909.0
aF926.0
aF916.0
aF913.0
aF903.0
aF905.0
aF908.0
aF907.0
aF906.0
aF904.0
aF903.0
aF908.0
aF908.0
aF907.0
aF906.0
aF911.0
aF926.0
aF916.0
aF927.0
aF914.0
aF908.0
aF909.0
aF926.0
aF906.0
aF921.0
aF905.0
aF908.0
aF921.0
aF911.0
aF924.0
aF913.0
aF923.0
aF914.0
aF899.0
aF909.0
aF910.0
aF905.0
asS'workers'
p27
I7
sS'gamma'
p28
F1.0
sS'vcount'
p29
I1000
s.