(dp0
S'niter'
p1
I100
sS'v_ad'
p2
(lp3
I200
aI200
aI200
aI200
aI200
aI200
aI200
aI200
aI200
aI200
aI200
aI200
aI200
aI200
aI200
aI200
aI200
aI200
aI200
aI200
aI200
aI200
aI200
aI200
aI200
aI200
aI200
aI200
aI200
aI200
aI200
aI200
aI200
aI200
aI200
aI200
aI200
aI200
aI200
aI200
aI200
aI200
aI200
aI200
aI200
aI200
aI200
aI200
aI200
aI200
aI200
aI200
aI200
aI200
aI200
aI200
aI200
aI200
aI200
aI200
aI200
aI200
aI200
aI200
aI200
aI200
aI200
aI200
aI200
aI200
aI200
aI200
aI200
aI200
aI200
aI200
aI200
aI200
aI200
aI200
aI200
aI200
aI200
aI200
aI200
aI200
aI200
aI200
aI200
aI200
aI200
aI200
aI200
aI200
aI200
aI200
aI200
aI200
aI200
aI200
asS'trans'
p4
F0.8047941557912676
sS'ecount'
p5
I13033
sS'name'
p6
S'SNAP_GR_1000'
p7
sS't_m'
p8
I42
sS'v_nonad_g'
p9
(lp10
I0
aI61
aI110
aI127
aI75
aI212
aI397
aI177
aI136
aI305
aI40
aI239
aI129
aI130
aI153
aI144
aI299
aI174
aI168
aI389
aI441
aI41
aI306
aI380
aI171
aI340
aI143
aI347
aI383
aI437
aI253
aI243
aI497
aI439
aI603
aI162
aI163
aI207
aI221
aI418
aI103
aI444
aI289
aI199
aI242
aI187
aI288
aI82
aI292
aI857
aI313
aI309
aI801
aI479
aI178
aI413
aI428
aI403
aI339
aI657
aI518
aI146
aI550
aI128
aI318
aI563
aI283
aI275
aI131
aI140
aI154
aI576
aI844
aI209
aI628
aI541
aI337
aI182
aI419
aI640
aI297
aI499
aI394
aI511
aI619
aI939
aI665
aI505
aI293
aI579
aI256
aI685
aI388
aI668
aI544
aI635
aI648
aI357
aI469
aI120
aI695
aI257
aI274
aI412
aI181
aI757
aI825
aI395
aI448
aI926
aI959
aI929
aI682
aI933
aI588
aI711
aI727
aI558
aI751
aI707
aI816
aI371
aI387
aI846
aI559
aI533
aI586
aI660
aI410
aI159
aI647
aI658
aI393
aI715
aI717
aI689
aI338
aI449
aI461
aI591
aI644
aI254
aI581
aI984
aI834
aI860
aI833
aI753
aI716
aI599
aI938
aI789
aI353
aI516
aI978
aI675
aI870
aI987
aI634
aI471
aI286
aI829
aI976
aI849
aI417
aI595
aI864
aI947
aI698
aI876
aI779
aI951
aI955
aI901
aI839
aI912
aI888
aI788
aI785
aI557
aI808
aI945
aI487
aI759
aI998
aI827
aI319
aI446
aI696
aI650
aI838
aI641
aI345
aI985
aI179
aI508
aI850
aI739
aI600
aI500
asS'pedge'
p11
F0.1
sS'r_ad'
p12
(lp13
F459.0
aF435.0
aF492.0
aF507.0
aF463.0
aF459.0
aF477.0
aF471.0
aF470.0
aF478.0
aF469.0
aF454.0
aF474.0
aF475.0
aF469.0
aF475.0
aF450.0
aF473.0
aF482.0
aF453.0
aF471.0
aF427.0
aF473.0
aF449.0
aF464.0
aF467.0
aF472.0
aF469.0
aF474.0
aF478.0
aF453.0
aF476.0
aF470.0
aF462.0
aF485.0
aF447.0
aF457.0
aF459.0
aF451.0
aF441.0
aF462.0
aF457.0
aF460.0
aF480.0
aF503.0
aF454.0
aF468.0
aF486.0
aF459.0
aF459.0
aF458.0
aF478.0
aF438.0
aF480.0
aF466.0
aF457.0
aF432.0
aF475.0
aF468.0
aF447.0
aF449.0
aF445.0
aF455.0
aF458.0
aF455.0
aF492.0
aF477.0
aF466.0
aF486.0
aF468.0
aF480.0
aF456.0
aF462.0
aF468.0
aF473.0
aF437.0
aF471.0
aF484.0
aF460.0
aF478.0
aF420.0
aF466.0
aF422.0
aF490.0
aF458.0
aF447.0
aF454.0
aF460.0
aF468.0
aF464.0
aF465.0
aF460.0
aF471.0
aF488.0
aF437.0
aF441.0
aF449.0
aF473.0
aF462.0
aF501.0
asS'v_nonad_rg'
p14
(lp15
I46
aI98
aI253
aI265
aI341
aI175
aI463
aI202
aI60
aI648
aI422
aI567
aI310
aI144
aI491
aI730
aI378
aI418
aI597
aI278
aI391
aI441
aI188
aI620
aI205
aI808
aI363
aI289
aI292
aI392
aI171
aI604
aI367
aI432
aI413
aI376
aI784
aI291
aI640
aI570
aI464
aI957
aI470
aI160
aI453
aI457
aI187
aI856
aI275
aI128
aI562
aI389
aI935
aI161
aI296
aI680
aI760
aI477
aI163
aI577
aI904
aI221
aI340
aI150
aI750
aI815
aI828
aI817
aI542
aI459
aI566
aI386
aI369
aI754
aI705
aI599
aI302
aI360
aI537
aI801
aI317
aI618
aI159
aI605
aI549
aI448
aI654
aI779
aI131
aI928
aI390
aI181
aI153
aI395
aI515
aI586
aI970
aI672
aI541
aI911
aI977
aI858
aI544
aI984
aI901
aI497
aI533
aI434
aI77
aI254
aI697
aI728
aI346
aI394
aI483
aI449
aI764
aI980
aI203
aI239
aI979
aI872
aI388
aI354
aI668
aI580
aI534
aI756
aI839
aI550
aI953
aI474
aI752
aI563
aI560
aI638
aI619
aI694
aI623
aI910
aI641
aI868
aI708
aI995
aI951
aI843
aI579
aI505
aI154
aI959
aI983
aI308
aI900
aI829
aI842
aI820
aI847
aI547
aI489
aI780
aI960
aI769
aI833
aI667
aI446
aI949
aI581
aI564
aI966
aI702
aI635
aI574
aI851
aI582
aI956
aI846
aI899
aI696
aI914
aI228
aI806
aI948
aI958
aI610
aI822
aI876
aI639
aI321
aI711
aI888
aI673
aI608
aI944
aI412
aI967
aI559
aI522
aI775
aI993
aI715
asS'nsim_ad'
p16
I1000
sS'git'
p17
S'f19acc5'
p18
sS'kratio'
p19
I5
sS'r_nonad_g'
p20
(lp21
F360.0
aF382.0
aF445.0
aF422.0
aF405.0
aF390.0
aF427.0
aF420.0
aF400.0
aF418.0
aF422.0
aF387.0
aF390.0
aF423.0
aF399.0
aF432.0
aF392.0
aF422.0
aF429.0
aF396.0
aF397.0
aF413.0
aF436.0
aF400.0
aF418.0
aF427.0
aF404.0
aF388.0
aF426.0
aF427.0
aF352.0
aF414.0
aF394.0
aF412.0
aF418.0
aF408.0
aF414.0
aF402.0
aF389.0
aF424.0
aF424.0
aF412.0
aF406.0
aF421.0
aF431.0
aF408.0
aF417.0
aF411.0
aF391.0
aF399.0
aF413.0
aF394.0
aF394.0
aF442.0
aF404.0
aF386.0
aF397.0
aF422.0
aF394.0
aF390.0
aF400.0
aF377.0
aF415.0
aF410.0
aF394.0
aF407.0
aF407.0
aF402.0
aF420.0
aF422.0
aF406.0
aF395.0
aF394.0
aF397.0
aF393.0
aF395.0
aF416.0
aF445.0
aF400.0
aF408.0
aF410.0
aF401.0
aF394.0
aF435.0
aF409.0
aF361.0
aF376.0
aF395.0
aF416.0
aF403.0
aF394.0
aF397.0
aF429.0
aF422.0
aF368.0
aF369.0
aF396.0
aF428.0
aF409.0
aF417.0
asS'nsim_nonad'
p22
I10000
sS't_h'
p23
I2
sS't_s'
p24
I45
sS'r_nonad_rg'
p25
(lp26
F376.0
aF406.0
aF413.0
aF419.0
aF385.0
aF395.0
aF422.0
aF404.0
aF385.0
aF425.0
aF419.0
aF400.0
aF381.0
aF399.0
aF401.0
aF416.0
aF378.0
aF436.0
aF399.0
aF398.0
aF367.0
aF397.0
aF399.0
aF398.0
aF399.0
aF395.0
aF394.0
aF402.0
aF391.0
aF395.0
aF385.0
aF418.0
aF396.0
aF402.0
aF415.0
aF410.0
aF407.0
aF396.0
aF381.0
aF416.0
aF392.0
aF424.0
aF395.0
aF411.0
aF411.0
aF401.0
aF421.0
aF418.0
aF382.0
aF385.0
aF393.0
aF412.0
aF397.0
aF438.0
aF420.0
aF401.0
aF349.0
aF423.0
aF402.0
aF379.0
aF404.0
aF384.0
aF391.0
aF403.0
aF385.0
aF427.0
aF402.0
aF402.0
aF401.0
aF400.0
aF422.0
aF387.0
aF395.0
aF405.0
aF412.0
aF393.0
aF400.0
aF420.0
aF391.0
aF416.0
aF390.0
aF403.0
aF385.0
aF426.0
aF400.0
aF372.0
aF377.0
aF391.0
aF404.0
aF394.0
aF411.0
aF394.0
aF402.0
aF421.0
aF368.0
aF371.0
aF407.0
aF398.0
aF370.0
aF413.0
asS'workers'
p27
I7
sS'gamma'
p28
F1.0
sS'vcount'
p29
I1000
s.