(dp0
S'niter'
p1
I100
sS'v_ad'
p2
(lp3
I100
aI100
aI100
aI100
aI100
aI100
aI100
aI100
aI100
aI100
aI100
aI100
aI100
aI100
aI100
aI100
aI100
aI100
aI100
aI100
aI100
aI100
aI100
aI100
aI100
aI100
aI100
aI100
aI100
aI100
aI100
aI100
aI100
aI100
aI100
aI100
aI100
aI100
aI100
aI100
aI100
aI100
aI100
aI100
aI100
aI100
aI100
aI100
aI100
aI100
aI100
aI100
aI100
aI100
aI100
aI100
aI100
aI100
aI100
aI100
aI100
aI100
aI100
aI100
aI100
aI100
aI100
aI100
aI100
aI100
aI100
aI100
aI100
aI100
aI100
aI100
aI100
aI100
aI100
aI100
aI100
aI100
aI100
aI100
aI100
aI100
aI100
aI100
aI100
aI100
aI100
aI100
aI100
aI100
aI100
aI100
aI100
aI100
aI100
aI100
asS'trans'
p4
F0.8047941557912676
sS'ecount'
p5
I13033
sS'name'
p6
S'SNAP_GR_1000'
p7
sS't_m'
p8
I39
sS'v_nonad_g'
p9
(lp10
I0
aI61
aI110
aI127
aI75
aI212
aI397
aI177
aI136
aI305
aI40
aI239
aI129
aI130
aI153
aI144
aI299
aI174
aI168
aI389
aI441
aI41
aI306
aI380
aI171
aI340
aI143
aI347
aI383
aI437
aI253
aI243
aI497
aI439
aI603
aI162
aI163
aI207
aI221
aI418
aI103
aI444
aI289
aI199
aI242
aI187
aI288
aI82
aI292
aI857
aI313
aI309
aI801
aI479
aI178
aI413
aI428
aI403
aI339
aI657
aI518
aI146
aI550
aI128
aI318
aI563
aI283
aI275
aI131
aI140
aI154
aI576
aI844
aI209
aI628
aI541
aI337
aI182
aI419
aI640
aI297
aI499
aI394
aI511
aI619
aI939
aI665
aI505
aI293
aI579
aI256
aI685
aI388
aI668
aI544
aI635
aI648
aI357
aI469
aI120
asS'pedge'
p11
F0.1
sS'r_ad'
p12
(lp13
F421.0
aF452.0
aF441.0
aF443.0
aF436.0
aF417.0
aF450.0
aF445.0
aF420.0
aF459.0
aF442.0
aF452.0
aF398.0
aF463.0
aF435.0
aF433.0
aF419.0
aF445.0
aF471.0
aF407.0
aF429.0
aF450.0
aF421.0
aF412.0
aF428.0
aF430.0
aF430.0
aF432.0
aF445.0
aF443.0
aF389.0
aF416.0
aF445.0
aF431.0
aF414.0
aF385.0
aF434.0
aF454.0
aF448.0
aF432.0
aF395.0
aF419.0
aF426.0
aF390.0
aF445.0
aF449.0
aF428.0
aF437.0
aF428.0
aF433.0
aF420.0
aF439.0
aF408.0
aF422.0
aF456.0
aF481.0
aF465.0
aF457.0
aF424.0
aF437.0
aF439.0
aF451.0
aF437.0
aF384.0
aF458.0
aF429.0
aF422.0
aF421.0
aF448.0
aF428.0
aF401.0
aF453.0
aF464.0
aF437.0
aF412.0
aF448.0
aF469.0
aF434.0
aF401.0
aF397.0
aF413.0
aF419.0
aF416.0
aF446.0
aF411.0
aF433.0
aF423.0
aF408.0
aF424.0
aF436.0
aF407.0
aF427.0
aF414.0
aF400.0
aF405.0
aF406.0
aF448.0
aF431.0
aF439.0
aF444.0
asS'v_nonad_rg'
p14
(lp15
I13
aI73
aI271
aI224
aI517
aI119
aI347
aI368
aI223
aI436
aI466
aI143
aI153
aI355
aI339
aI235
aI350
aI384
aI962
aI393
aI338
aI658
aI934
aI567
aI566
aI529
aI174
aI292
aI131
aI396
aI41
aI208
aI314
aI283
aI306
aI316
aI315
aI668
aI476
aI540
aI361
aI370
aI943
aI409
aI146
aI375
aI310
aI835
aI241
aI708
aI674
aI732
aI499
aI479
aI701
aI550
aI164
aI786
aI168
aI640
aI887
aI702
aI162
aI150
aI661
aI358
aI473
aI477
aI416
aI618
aI511
aI942
aI617
aI628
aI406
aI297
aI383
aI983
aI459
aI394
aI242
aI760
aI413
aI274
aI523
aI486
aI257
aI203
aI589
aI369
aI591
aI563
aI504
aI171
aI999
aI599
aI642
aI859
aI253
aI608
asS'nsim_ad'
p16
I1000
sS'git'
p17
S'674f73d'
p18
sS'kratio'
p19
I10
sS'r_nonad_g'
p20
(lp21
F385.0
aF396.0
aF401.0
aF418.0
aF413.0
aF363.0
aF402.0
aF416.0
aF381.0
aF430.0
aF391.0
aF405.0
aF351.0
aF431.0
aF378.0
aF389.0
aF383.0
aF416.0
aF440.0
aF389.0
aF392.0
aF379.0
aF410.0
aF398.0
aF402.0
aF422.0
aF364.0
aF410.0
aF394.0
aF417.0
aF348.0
aF402.0
aF387.0
aF383.0
aF404.0
aF366.0
aF408.0
aF400.0
aF382.0
aF386.0
aF377.0
aF371.0
aF392.0
aF361.0
aF385.0
aF404.0
aF377.0
aF401.0
aF389.0
aF391.0
aF382.0
aF377.0
aF360.0
aF393.0
aF386.0
aF447.0
aF434.0
aF411.0
aF388.0
aF403.0
aF389.0
aF413.0
aF395.0
aF351.0
aF412.0
aF376.0
aF372.0
aF400.0
aF386.0
aF349.0
aF357.0
aF405.0
aF404.0
aF401.0
aF370.0
aF394.0
aF419.0
aF383.0
aF366.0
aF389.0
aF386.0
aF393.0
aF356.0
aF395.0
aF394.0
aF380.0
aF394.0
aF386.0
aF400.0
aF369.0
aF335.0
aF404.0
aF372.0
aF345.0
aF368.0
aF382.0
aF399.0
aF404.0
aF402.0
aF394.0
asS'nsim_nonad'
p22
I10000
sS't_h'
p23
I2
sS't_s'
p24
I56
sS'r_nonad_rg'
p25
(lp26
F325.0
aF402.0
aF384.0
aF401.0
aF394.0
aF380.0
aF360.0
aF388.0
aF372.0
aF399.0
aF359.0
aF371.0
aF346.0
aF420.0
aF379.0
aF397.0
aF388.0
aF398.0
aF405.0
aF377.0
aF330.0
aF402.0
aF399.0
aF386.0
aF398.0
aF396.0
aF388.0
aF386.0
aF390.0
aF396.0
aF317.0
aF387.0
aF379.0
aF402.0
aF406.0
aF373.0
aF336.0
aF368.0
aF383.0
aF364.0
aF362.0
aF384.0
aF376.0
aF328.0
aF394.0
aF404.0
aF392.0
aF383.0
aF396.0
aF391.0
aF368.0
aF404.0
aF357.0
aF395.0
aF380.0
aF427.0
aF412.0
aF399.0
aF387.0
aF409.0
aF384.0
aF377.0
aF380.0
aF335.0
aF411.0
aF386.0
aF320.0
aF296.0
aF399.0
aF370.0
aF366.0
aF390.0
aF413.0
aF395.0
aF374.0
aF373.0
aF408.0
aF367.0
aF367.0
aF382.0
aF389.0
aF374.0
aF356.0
aF386.0
aF378.0
aF400.0
aF359.0
aF338.0
aF385.0
aF371.0
aF331.0
aF392.0
aF374.0
aF374.0
aF361.0
aF368.0
aF402.0
aF382.0
aF410.0
aF386.0
asS'workers'
p27
I3
sS'gamma'
p28
F1.0
sS'vcount'
p29
I1000
s.