(dp0
S'niter'
p1
I100
sS'v_ad'
p2
(lp3
I100
aI100
aI100
aI100
aI100
aI100
aI100
aI100
aI100
aI100
aI100
aI100
aI100
aI100
aI100
aI100
aI100
aI100
aI100
aI100
aI100
aI100
aI100
aI100
aI100
aI100
aI100
aI100
aI100
aI100
aI100
aI100
aI100
aI100
aI100
aI100
aI100
aI100
aI100
aI100
aI100
aI100
aI100
aI100
aI100
aI100
aI100
aI100
aI100
aI100
aI100
aI100
aI100
aI100
aI100
aI100
aI100
aI100
aI100
aI100
aI100
aI100
aI100
aI100
aI100
aI100
aI100
aI100
aI100
aI100
aI100
aI100
aI100
aI100
aI100
aI100
aI100
aI100
aI100
aI100
aI100
aI100
aI100
aI100
aI100
aI100
aI100
aI100
aI100
aI100
aI100
aI100
aI100
aI100
aI100
aI100
aI100
aI100
aI100
aI100
asS'trans'
p4
F0.8047941557912676
sS'ecount'
p5
I13033
sS'name'
p6
S'SNAP_GR_1000'
p7
sS't_m'
p8
I37
sS'v_nonad_g'
p9
(lp10
I8
aI12
aI105
aI75
aI127
aI172
aI4
aI61
aI89
aI74
aI151
aI136
aI184
aI152
aI149
aI40
aI177
aI427
aI305
aI130
aI319
aI249
aI120
aI239
aI41
aI145
aI167
aI222
aI129
aI82
aI144
aI368
aI153
aI108
aI143
aI299
aI253
aI306
aI257
aI466
aI168
aI163
aI313
aI174
aI171
aI389
aI364
aI380
aI162
aI418
aI103
aI797
aI340
aI150
aI384
aI140
aI530
aI422
aI285
aI497
aI214
aI142
aI242
aI187
aI218
aI221
aI395
aI312
aI265
aI468
aI243
aI444
aI413
aI431
aI708
aI350
aI147
aI289
aI801
aI428
aI403
aI128
aI315
aI339
aI325
aI741
aI469
aI293
aI479
aI297
aI154
aI131
aI344
aI146
aI283
aI376
aI337
aI318
aI275
aI563
asS'pedge'
p11
F0.05
sS'r_ad'
p12
(lp13
F251.0
aF202.0
aF237.0
aF216.0
aF217.0
aF252.0
aF221.0
aF222.0
aF241.0
aF240.0
aF210.0
aF233.0
aF231.0
aF204.0
aF250.0
aF211.0
aF222.0
aF221.0
aF207.0
aF241.0
aF225.0
aF232.0
aF200.0
aF195.0
aF219.0
aF249.0
aF212.0
aF245.0
aF229.0
aF223.0
aF229.0
aF223.0
aF231.0
aF221.0
aF243.0
aF224.0
aF204.0
aF259.0
aF211.0
aF199.0
aF238.0
aF241.0
aF213.0
aF249.0
aF182.0
aF231.0
aF220.0
aF229.0
aF250.0
aF222.0
aF248.0
aF251.0
aF207.0
aF242.0
aF221.0
aF188.0
aF228.0
aF241.0
aF242.0
aF231.0
aF234.0
aF271.0
aF235.0
aF226.0
aF217.0
aF236.0
aF216.0
aF194.0
aF232.0
aF233.0
aF201.0
aF247.0
aF207.0
aF247.0
aF230.0
aF233.0
aF222.0
aF223.0
aF222.0
aF225.0
aF233.0
aF233.0
aF248.0
aF226.0
aF236.0
aF247.0
aF218.0
aF222.0
aF235.0
aF225.0
aF258.0
aF220.0
aF240.0
aF202.0
aF237.0
aF227.0
aF228.0
aF221.0
aF212.0
aF203.0
asS'v_nonad_rg'
p14
(lp15
I27
aI76
aI58
aI17
aI261
aI86
aI98
aI195
aI225
aI226
aI75
aI213
aI432
aI330
aI161
aI362
aI150
aI236
aI382
aI130
aI361
aI313
aI208
aI198
aI410
aI62
aI177
aI112
aI234
aI384
aI480
aI399
aI128
aI278
aI249
aI450
aI334
aI413
aI752
aI587
aI522
aI470
aI285
aI469
aI163
aI159
aI253
aI497
aI612
aI418
aI173
aI427
aI218
aI252
aI403
aI162
aI429
aI464
aI167
aI708
aI391
aI444
aI40
aI174
aI380
aI306
aI176
aI668
aI215
aI41
aI323
aI293
aI441
aI333
aI544
aI307
aI603
aI654
aI567
aI393
aI171
aI153
aI210
aI141
aI854
aI250
aI149
aI143
aI315
aI459
aI221
aI381
aI339
aI404
aI142
aI299
aI165
aI954
aI337
aI491
asS'nsim_ad'
p16
I1000
sS'git'
p17
S'674f73d'
p18
sS'kratio'
p19
I10
sS'r_nonad_g'
p20
(lp21
F236.0
aF184.0
aF202.0
aF206.0
aF208.0
aF245.0
aF204.0
aF208.0
aF204.0
aF200.0
aF187.0
aF204.0
aF222.0
aF197.0
aF238.0
aF184.0
aF221.0
aF191.0
aF203.0
aF228.0
aF199.0
aF207.0
aF186.0
aF195.0
aF167.0
aF166.0
aF201.0
aF222.0
aF226.0
aF209.0
aF193.0
aF193.0
aF188.0
aF217.0
aF208.0
aF206.0
aF149.0
aF217.0
aF210.0
aF155.0
aF225.0
aF224.0
aF183.0
aF219.0
aF199.0
aF158.0
aF184.0
aF174.0
aF199.0
aF180.0
aF217.0
aF225.0
aF197.0
aF192.0
aF207.0
aF151.0
aF198.0
aF196.0
aF221.0
aF208.0
aF189.0
aF229.0
aF221.0
aF189.0
aF201.0
aF179.0
aF214.0
aF178.0
aF194.0
aF174.0
aF196.0
aF210.0
aF199.0
aF192.0
aF210.0
aF225.0
aF204.0
aF203.0
aF151.0
aF215.0
aF157.0
aF217.0
aF185.0
aF208.0
aF194.0
aF225.0
aF190.0
aF197.0
aF202.0
aF176.0
aF253.0
aF190.0
aF231.0
aF213.0
aF195.0
aF219.0
aF209.0
aF208.0
aF172.0
aF186.0
asS'nsim_nonad'
p22
I10000
sS't_h'
p23
I4
sS't_s'
p24
I30
sS'r_nonad_rg'
p25
(lp26
F212.0
aF140.0
aF195.0
aF190.0
aF160.0
aF217.0
aF198.0
aF196.0
aF191.0
aF204.0
aF207.0
aF172.0
aF199.0
aF177.0
aF219.0
aF203.0
aF202.0
aF183.0
aF197.0
aF192.0
aF221.0
aF203.0
aF194.0
aF183.0
aF197.0
aF200.0
aF198.0
aF208.0
aF207.0
aF218.0
aF207.0
aF185.0
aF208.0
aF204.0
aF207.0
aF208.0
aF154.0
aF225.0
aF169.0
aF167.0
aF206.0
aF211.0
aF193.0
aF211.0
aF169.0
aF191.0
aF193.0
aF175.0
aF205.0
aF195.0
aF184.0
aF214.0
aF193.0
aF190.0
aF217.0
aF161.0
aF185.0
aF200.0
aF207.0
aF206.0
aF203.0
aF221.0
aF215.0
aF208.0
aF175.0
aF176.0
aF189.0
aF178.0
aF186.0
aF191.0
aF174.0
aF196.0
aF210.0
aF209.0
aF185.0
aF201.0
aF216.0
aF208.0
aF214.0
aF197.0
aF190.0
aF206.0
aF200.0
aF208.0
aF183.0
aF220.0
aF198.0
aF187.0
aF209.0
aF179.0
aF215.0
aF204.0
aF220.0
aF206.0
aF219.0
aF189.0
aF201.0
aF217.0
aF196.0
aF178.0
asS'workers'
p27
I3
sS'gamma'
p28
F1.0
sS'vcount'
p29
I1000
s.