(dp0
S'niter'
p1
I100
sS'v_ad'
p2
(lp3
I100
aI100
aI100
aI100
aI100
aI100
aI100
aI100
aI100
aI100
aI100
aI100
aI100
aI100
aI100
aI100
aI100
aI100
aI100
aI100
aI100
aI100
aI100
aI100
aI100
aI100
aI100
aI100
aI100
aI100
aI100
aI100
aI100
aI100
aI100
aI100
aI100
aI100
aI100
aI100
aI100
aI100
aI100
aI100
aI100
aI100
aI100
aI100
aI100
aI100
aI100
aI100
aI100
aI100
aI100
aI100
aI100
aI100
aI100
aI100
aI100
aI100
aI100
aI100
aI100
aI100
aI100
aI100
aI100
aI100
aI100
aI100
aI100
aI100
aI100
aI100
aI100
aI100
aI100
aI100
aI100
aI100
aI100
aI100
aI100
aI100
aI100
aI100
aI100
aI100
aI100
aI100
aI100
aI100
aI100
aI100
aI100
aI100
aI100
aI100
asS'trans'
p4
F0.8047941557912676
sS'ecount'
p5
I13033
sS'name'
p6
S'SNAP_GR_1000'
p7
sS't_m'
p8
I41
sS'v_nonad_g'
p9
(lp10
I2
aI70
aI92
aI127
aI219
aI75
aI427
aI177
aI391
aI239
aI299
aI389
aI168
aI752
aI130
aI165
aI380
aI376
aI144
aI171
aI242
aI289
aI187
aI174
aI620
aI444
aI603
aI128
aI288
aI286
aI309
aI801
aI243
aI479
aI221
aI146
aI518
aI657
aI297
aI162
aI178
aI469
aI898
aI428
aI292
aI419
aI413
aI983
aI283
aI844
aI939
aI318
aI628
aI658
aI541
aI711
aI369
aI647
aI635
aI689
aI256
aI550
aI394
aI545
aI203
aI619
aI640
aI959
aI253
aI782
aI695
aI615
aI877
aI817
aI274
aI617
aI565
aI929
aI410
aI436
aI880
aI412
aI846
aI558
aI345
aI933
aI337
aI727
aI511
aI463
aI816
aI499
aI890
aI715
aI717
aI765
aI748
aI751
aI757
aI919
asS'pedge'
p11
F0.15
sS'r_ad'
p12
(lp13
F624.0
aF561.0
aF590.0
aF595.0
aF556.0
aF603.0
aF580.0
aF599.0
aF618.0
aF602.0
aF625.0
aF609.0
aF585.0
aF573.0
aF604.0
aF584.0
aF590.0
aF578.0
aF569.0
aF576.0
aF587.0
aF591.0
aF536.0
aF571.0
aF610.0
aF569.0
aF590.0
aF587.0
aF560.0
aF554.0
aF608.0
aF558.0
aF554.0
aF582.0
aF594.0
aF574.0
aF602.0
aF594.0
aF584.0
aF571.0
aF593.0
aF601.0
aF591.0
aF617.0
aF543.0
aF591.0
aF583.0
aF593.0
aF578.0
aF556.0
aF583.0
aF562.0
aF584.0
aF592.0
aF620.0
aF583.0
aF593.0
aF583.0
aF555.0
aF602.0
aF632.0
aF609.0
aF563.0
aF559.0
aF587.0
aF602.0
aF617.0
aF563.0
aF563.0
aF600.0
aF581.0
aF567.0
aF582.0
aF576.0
aF604.0
aF583.0
aF581.0
aF578.0
aF590.0
aF611.0
aF570.0
aF597.0
aF569.0
aF575.0
aF603.0
aF578.0
aF580.0
aF615.0
aF584.0
aF631.0
aF579.0
aF592.0
aF569.0
aF617.0
aF585.0
aF557.0
aF599.0
aF607.0
aF586.0
aF572.0
asS'v_nonad_rg'
p14
(lp15
I15
aI76
aI468
aI202
aI395
aI114
aI241
aI363
aI437
aI972
aI418
aI227
aI378
aI380
aI436
aI604
aI562
aI168
aI375
aI459
aI655
aI314
aI515
aI292
aI679
aI296
aI752
aI281
aI274
aI389
aI690
aI702
aI384
aI878
aI160
aI321
aI591
aI710
aI948
aI150
aI628
aI582
aI534
aI309
aI536
aI560
aI243
aI574
aI448
aI657
aI367
aI939
aI203
aI927
aI209
aI553
aI315
aI707
aI873
aI491
aI441
aI505
aI146
aI518
aI689
aI647
aI840
aI496
aI572
aI318
aI479
aI731
aI784
aI397
aI642
aI721
aI599
aI639
aI691
aI558
aI844
aI640
aI242
aI511
aI768
aI581
aI473
aI734
aI641
aI917
aI692
aI780
aI846
aI940
aI699
aI649
aI131
aI788
aI388
aI978
asS'nsim_ad'
p16
I1000
sS'git'
p17
S'674f73d'
p18
sS'kratio'
p19
I10
sS'r_nonad_g'
p20
(lp21
F573.0
aF509.0
aF543.0
aF533.0
aF511.0
aF538.0
aF534.0
aF556.0
aF573.0
aF555.0
aF584.0
aF550.0
aF539.0
aF522.0
aF545.0
aF530.0
aF563.0
aF513.0
aF522.0
aF521.0
aF524.0
aF535.0
aF489.0
aF515.0
aF558.0
aF536.0
aF542.0
aF545.0
aF512.0
aF490.0
aF559.0
aF518.0
aF533.0
aF517.0
aF514.0
aF524.0
aF547.0
aF558.0
aF548.0
aF516.0
aF551.0
aF533.0
aF540.0
aF553.0
aF543.0
aF532.0
aF542.0
aF510.0
aF549.0
aF509.0
aF496.0
aF512.0
aF530.0
aF560.0
aF553.0
aF511.0
aF558.0
aF541.0
aF501.0
aF565.0
aF576.0
aF553.0
aF550.0
aF514.0
aF536.0
aF532.0
aF572.0
aF504.0
aF542.0
aF529.0
aF536.0
aF501.0
aF531.0
aF534.0
aF541.0
aF542.0
aF536.0
aF507.0
aF520.0
aF547.0
aF504.0
aF525.0
aF517.0
aF545.0
aF538.0
aF521.0
aF501.0
aF550.0
aF542.0
aF527.0
aF524.0
aF560.0
aF506.0
aF555.0
aF545.0
aF520.0
aF548.0
aF571.0
aF518.0
aF529.0
asS'nsim_nonad'
p22
I10000
sS't_h'
p23
I1
sS't_s'
p24
I8
sS'r_nonad_rg'
p25
(lp26
F562.0
aF509.0
aF532.0
aF526.0
aF533.0
aF519.0
aF527.0
aF508.0
aF565.0
aF540.0
aF575.0
aF490.0
aF525.0
aF521.0
aF536.0
aF520.0
aF560.0
aF501.0
aF476.0
aF514.0
aF509.0
aF517.0
aF496.0
aF527.0
aF569.0
aF511.0
aF543.0
aF525.0
aF515.0
aF496.0
aF544.0
aF505.0
aF528.0
aF527.0
aF494.0
aF497.0
aF529.0
aF538.0
aF497.0
aF518.0
aF488.0
aF544.0
aF542.0
aF542.0
aF519.0
aF536.0
aF532.0
aF523.0
aF544.0
aF519.0
aF501.0
aF531.0
aF535.0
aF536.0
aF555.0
aF514.0
aF544.0
aF525.0
aF516.0
aF543.0
aF558.0
aF557.0
aF513.0
aF532.0
aF533.0
aF531.0
aF548.0
aF506.0
aF504.0
aF543.0
aF494.0
aF522.0
aF539.0
aF491.0
aF549.0
aF547.0
aF544.0
aF477.0
aF528.0
aF542.0
aF523.0
aF542.0
aF509.0
aF539.0
aF541.0
aF511.0
aF535.0
aF558.0
aF534.0
aF565.0
aF501.0
aF541.0
aF478.0
aF559.0
aF539.0
aF478.0
aF543.0
aF547.0
aF525.0
aF510.0
asS'workers'
p27
I3
sS'gamma'
p28
F1.0
sS'vcount'
p29
I1000
s.