(dp0
S'niter'
p1
I100
sS'v_ad'
p2
(lp3
I100
aI100
aI100
aI100
aI100
aI100
aI100
aI100
aI100
aI100
aI100
aI100
aI100
aI100
aI100
aI100
aI100
aI100
aI100
aI100
aI100
aI100
aI100
aI100
aI100
aI100
aI100
aI100
aI100
aI100
aI100
aI100
aI100
aI100
aI100
aI100
aI100
aI100
aI100
aI100
aI100
aI100
aI100
aI100
aI100
aI100
aI100
aI100
aI100
aI100
aI100
aI100
aI100
aI100
aI100
aI100
aI100
aI100
aI100
aI100
aI100
aI100
aI100
aI100
aI100
aI100
aI100
aI100
aI100
aI100
aI100
aI100
aI100
aI100
aI100
aI100
aI100
aI100
aI100
aI100
aI100
aI100
aI100
aI100
aI100
aI100
aI100
aI100
aI100
aI100
aI100
aI100
aI100
aI100
aI100
aI100
aI100
aI100
aI100
aI100
asS'trans'
p4
F0.009741868016951951
sS'ecount'
p5
I3994
sS'name'
p6
S'B_A_1000_2'
p7
sS't_m'
p8
I56
sS'v_nonad_g'
p9
(lp10
I0
aI1
aI2
aI33
aI12
aI24
aI6
aI10
aI9
aI8
aI7
aI15
aI71
aI29
aI16
aI135
aI105
aI122
aI48
aI77
aI26
aI32
aI5
aI25
aI114
aI109
aI429
aI50
aI242
aI28
aI108
aI80
aI57
aI173
aI30
aI144
aI466
aI92
aI106
aI20
aI66
aI493
aI446
aI52
aI11
aI234
aI310
aI580
aI115
aI239
aI118
aI430
aI212
aI231
aI318
aI174
aI3
aI160
aI43
aI137
aI535
aI440
aI241
aI14
aI250
aI197
aI61
aI321
aI143
aI287
aI457
aI621
aI335
aI129
aI175
aI142
aI860
aI380
aI685
aI202
aI4
aI445
aI245
aI138
aI490
aI645
aI895
aI186
aI629
aI564
aI244
aI181
aI146
aI665
aI413
aI161
aI133
aI480
aI576
aI889
asS'pedge'
p11
F0.1
sS'r_ad'
p12
(lp13
F143.0
aF168.0
aF151.0
aF139.0
aF151.0
aF161.0
aF164.0
aF103.0
aF136.0
aF135.0
aF134.0
aF172.0
aF138.0
aF158.0
aF166.0
aF150.0
aF184.0
aF140.0
aF139.0
aF156.0
aF139.0
aF173.0
aF153.0
aF163.0
aF155.0
aF133.0
aF163.0
aF132.0
aF172.0
aF151.0
aF173.0
aF142.0
aF152.0
aF152.0
aF156.0
aF162.0
aF169.0
aF160.0
aF147.0
aF162.0
aF155.0
aF126.0
aF135.0
aF153.0
aF142.0
aF183.0
aF150.0
aF163.0
aF175.0
aF147.0
aF138.0
aF160.0
aF125.0
aF169.0
aF155.0
aF153.0
aF166.0
aF152.0
aF147.0
aF151.0
aF149.0
aF145.0
aF129.0
aF146.0
aF170.0
aF139.0
aF170.0
aF164.0
aF169.0
aF157.0
aF164.0
aF137.0
aF144.0
aF141.0
aF146.0
aF175.0
aF168.0
aF154.0
aF177.0
aF168.0
aF159.0
aF177.0
aF174.0
aF165.0
aF149.0
aF157.0
aF160.0
aF147.0
aF180.0
aF173.0
aF147.0
aF181.0
aF161.0
aF155.0
aF159.0
aF169.0
aF153.0
aF147.0
aF146.0
aF134.0
asS'v_nonad_rg'
p14
(lp15
I622
aI183
aI33
aI147
aI31
aI49
aI38
aI65
aI559
aI61
aI59
aI89
aI11
aI5
aI166
aI724
aI167
aI191
aI30
aI242
aI115
aI19
aI111
aI177
aI1
aI9
aI430
aI299
aI60
aI20
aI431
aI28
aI2
aI122
aI349
aI40
aI105
aI138
aI124
aI106
aI356
aI77
aI333
aI39
aI14
aI567
aI17
aI87
aI142
aI823
aI239
aI433
aI80
aI521
aI439
aI535
aI320
aI381
aI93
aI376
aI175
aI335
aI102
aI313
aI37
aI78
aI103
aI193
aI132
aI862
aI838
aI380
aI143
aI564
aI571
aI165
aI10
aI6
aI491
aI407
aI732
aI92
aI497
aI118
aI42
aI90
aI86
aI480
aI636
aI203
aI518
aI466
aI661
aI146
aI927
aI580
aI435
aI58
aI835
aI66
asS'nsim_ad'
p16
I1000
sS'git'
p17
S'6993752'
p18
sS'kratio'
p19
I10
sS'r_nonad_g'
p20
(lp21
F143.0
aF162.0
aF146.0
aF123.0
aF134.0
aF141.0
aF140.0
aF123.0
aF138.0
aF128.0
aF122.0
aF156.0
aF140.0
aF146.0
aF131.0
aF133.0
aF162.0
aF141.0
aF152.0
aF137.0
aF142.0
aF155.0
aF139.0
aF143.0
aF136.0
aF137.0
aF142.0
aF123.0
aF163.0
aF160.0
aF144.0
aF145.0
aF141.0
aF134.0
aF153.0
aF147.0
aF147.0
aF139.0
aF138.0
aF156.0
aF146.0
aF127.0
aF136.0
aF139.0
aF127.0
aF164.0
aF149.0
aF157.0
aF146.0
aF117.0
aF143.0
aF162.0
aF124.0
aF159.0
aF138.0
aF148.0
aF136.0
aF141.0
aF135.0
aF138.0
aF134.0
aF137.0
aF137.0
aF153.0
aF154.0
aF139.0
aF163.0
aF141.0
aF154.0
aF140.0
aF153.0
aF108.0
aF145.0
aF136.0
aF140.0
aF150.0
aF159.0
aF141.0
aF153.0
aF150.0
aF153.0
aF163.0
aF158.0
aF151.0
aF147.0
aF137.0
aF143.0
aF139.0
aF148.0
aF152.0
aF128.0
aF162.0
aF149.0
aF145.0
aF145.0
aF142.0
aF149.0
aF130.0
aF130.0
aF122.0
asS'nsim_nonad'
p22
I10000
sS't_h'
p23
I1
sS't_s'
p24
I36
sS'r_nonad_rg'
p25
(lp26
F113.0
aF154.0
aF135.0
aF130.0
aF107.0
aF104.0
aF146.0
aF117.0
aF122.0
aF119.0
aF130.0
aF140.0
aF133.0
aF130.0
aF143.0
aF137.0
aF157.0
aF125.0
aF132.0
aF128.0
aF138.0
aF141.0
aF124.0
aF148.0
aF114.0
aF106.0
aF130.0
aF113.0
aF141.0
aF122.0
aF112.0
aF121.0
aF124.0
aF119.0
aF135.0
aF107.0
aF121.0
aF119.0
aF130.0
aF137.0
aF152.0
aF106.0
aF110.0
aF127.0
aF93.0
aF155.0
aF129.0
aF154.0
aF148.0
aF109.0
aF131.0
aF136.0
aF105.0
aF111.0
aF136.0
aF133.0
aF137.0
aF128.0
aF119.0
aF132.0
aF139.0
aF113.0
aF134.0
aF134.0
aF136.0
aF132.0
aF144.0
aF134.0
aF136.0
aF135.0
aF136.0
aF111.0
aF129.0
aF116.0
aF113.0
aF146.0
aF134.0
aF123.0
aF141.0
aF119.0
aF113.0
aF158.0
aF141.0
aF138.0
aF159.0
aF126.0
aF108.0
aF122.0
aF147.0
aF120.0
aF112.0
aF145.0
aF138.0
aF103.0
aF122.0
aF144.0
aF151.0
aF124.0
aF107.0
aF101.0
asS'workers'
p27
I4
sS'gamma'
p28
F1.0
sS'vcount'
p29
I1000
s.