(dp0
S'niter'
p1
I100
sS'v_ad'
p2
(lp3
I100
aI100
aI100
aI100
aI100
aI100
aI100
aI100
aI100
aI100
aI100
aI100
aI100
aI100
aI100
aI100
aI100
aI100
aI100
aI100
aI100
aI100
aI100
aI100
aI100
aI100
aI100
aI100
aI100
aI100
aI100
aI100
aI100
aI100
aI100
aI100
aI100
aI100
aI100
aI100
aI100
aI100
aI100
aI100
aI100
aI100
aI100
aI100
aI100
aI100
aI100
aI100
aI100
aI100
aI100
aI100
aI100
aI100
aI100
aI100
aI100
aI100
aI100
aI100
aI100
aI100
aI100
aI100
aI100
aI100
aI100
aI100
aI100
aI100
aI100
aI100
aI100
aI100
aI100
aI100
aI100
aI100
aI100
aI100
aI100
aI100
aI100
aI100
aI100
aI100
aI100
aI100
aI100
aI100
aI100
aI100
aI100
aI100
aI100
aI100
asS'trans'
p4
F0.009741868016951951
sS'ecount'
p5
I3994
sS'name'
p6
S'B_A_1000_2'
p7
sS't_m'
p8
I56
sS'v_nonad_g'
p9
(lp10
I0
aI535
aI129
aI493
aI570
aI446
aI560
aI250
aI287
aI895
aI734
aI685
aI580
aI818
aI457
aI440
aI498
aI241
aI435
aI245
aI92
aI421
aI621
aI815
aI553
aI468
aI646
aI943
aI788
aI899
aI270
aI754
aI889
aI860
aI690
aI564
aI952
aI775
aI585
aI915
aI888
aI761
aI696
aI704
aI827
aI186
aI855
aI902
aI321
aI596
aI645
aI197
aI944
aI112
aI318
aI814
aI673
aI511
aI678
aI801
aI965
aI504
aI477
aI990
aI822
aI527
aI881
aI533
aI783
aI703
aI972
aI768
aI555
aI687
aI923
aI870
aI932
aI843
aI995
aI790
aI869
aI487
aI705
aI882
aI968
aI693
aI176
asS'pedge'
p11
F0.3
sS'r_ad'
p12
(lp13
F521.0
aF529.0
aF536.0
aF572.0
aF567.0
aF548.0
aF559.0
aF539.0
aF541.0
aF526.0
aF554.0
aF528.0
aF535.0
aF521.0
aF552.0
aF545.0
aF530.0
aF544.0
aF563.0
aF566.0
aF581.0
aF527.0
aF543.0
aF519.0
aF536.0
aF548.0
aF531.0
aF557.0
aF558.0
aF544.0
aF559.0
aF518.0
aF508.0
aF529.0
aF538.0
aF533.0
aF527.0
aF509.0
aF512.0
aF537.0
aF554.0
aF549.0
aF530.0
aF538.0
aF564.0
aF525.0
aF554.0
aF548.0
aF539.0
aF551.0
aF527.0
aF529.0
aF532.0
aF555.0
aF560.0
aF522.0
aF529.0
aF566.0
aF546.0
aF552.0
aF488.0
aF532.0
aF531.0
aF537.0
aF553.0
aF562.0
aF533.0
aF537.0
aF529.0
aF556.0
aF556.0
aF578.0
aF547.0
aF543.0
aF540.0
aF556.0
aF564.0
aF545.0
aF516.0
aF551.0
aF549.0
aF534.0
aF552.0
aF570.0
aF565.0
aF517.0
aF531.0
aF574.0
aF526.0
aF544.0
aF555.0
aF546.0
aF534.0
aF566.0
aF521.0
aF548.0
aF567.0
aF534.0
aF514.0
aF545.0
asS'v_nonad_rg'
p14
(lp15
I167
aI45
aI33
aI553
aI132
aI250
aI437
aI894
aI972
aI421
aI754
aI536
aI838
aI513
aI358
aI585
aI198
aI503
aI834
aI889
aI768
aI818
aI596
aI986
aI888
aI815
aI411
aI704
aI870
aI685
aI686
aI693
aI287
aI564
aI944
aI719
aI674
aI673
aI687
aI761
aI416
aI968
aI696
aI634
aI846
aI593
aI199
aI521
aI487
aI654
aI913
aI927
aI890
aI579
aI202
aI321
aI709
aI945
aI678
aI689
aI318
aI515
aI827
aI814
aI646
aI452
aI517
aI526
aI932
aI605
aI153
aI149
aI915
aI705
aI940
aI533
aI457
aI758
aI491
aI990
aI700
aI902
aI995
aI525
aI785
aI910
aI882
aI418
aI665
aI342
aI176
aI690
aI832
aI775
aI480
aI801
aI703
aI855
aI619
aI555
asS'nsim_ad'
p16
I1000
sS'git'
p17
S'6993752'
p18
sS'kratio'
p19
I10
sS'r_nonad_g'
p20
(lp21
F451.0
aF461.0
aF481.0
aF504.0
aF509.0
aF472.0
aF495.0
aF459.0
aF483.0
aF462.0
aF478.0
aF478.0
aF473.0
aF447.0
aF471.0
aF452.0
aF468.0
aF493.0
aF476.0
aF510.0
aF511.0
aF473.0
aF498.0
aF452.0
aF462.0
aF490.0
aF466.0
aF501.0
aF518.0
aF488.0
aF476.0
aF455.0
aF437.0
aF464.0
aF481.0
aF477.0
aF475.0
aF444.0
aF430.0
aF476.0
aF484.0
aF459.0
aF464.0
aF492.0
aF507.0
aF489.0
aF492.0
aF496.0
aF492.0
aF497.0
aF461.0
aF474.0
aF486.0
aF493.0
aF491.0
aF453.0
aF469.0
aF487.0
aF488.0
aF449.0
aF413.0
aF469.0
aF465.0
aF493.0
aF487.0
aF484.0
aF469.0
aF488.0
aF459.0
aF491.0
aF487.0
aF511.0
aF478.0
aF460.0
aF481.0
aF496.0
aF501.0
aF467.0
aF461.0
aF482.0
aF508.0
aF479.0
aF493.0
aF495.0
aF502.0
aF439.0
aF481.0
aF505.0
aF464.0
aF477.0
aF470.0
aF478.0
aF479.0
aF486.0
aF464.0
aF475.0
aF507.0
aF441.0
aF461.0
aF498.0
asS'nsim_nonad'
p22
I10000
sS't_h'
p23
I0
sS't_s'
p24
I19
sS'r_nonad_rg'
p25
(lp26
F435.0
aF455.0
aF471.0
aF507.0
aF508.0
aF454.0
aF484.0
aF460.0
aF481.0
aF458.0
aF478.0
aF457.0
aF474.0
aF449.0
aF478.0
aF479.0
aF475.0
aF489.0
aF472.0
aF505.0
aF518.0
aF471.0
aF507.0
aF446.0
aF468.0
aF485.0
aF443.0
aF495.0
aF516.0
aF484.0
aF471.0
aF450.0
aF423.0
aF459.0
aF476.0
aF470.0
aF471.0
aF438.0
aF426.0
aF478.0
aF481.0
aF474.0
aF475.0
aF484.0
aF509.0
aF481.0
aF500.0
aF478.0
aF486.0
aF487.0
aF454.0
aF463.0
aF474.0
aF479.0
aF500.0
aF469.0
aF468.0
aF482.0
aF485.0
aF453.0
aF421.0
aF469.0
aF453.0
aF473.0
aF484.0
aF471.0
aF471.0
aF482.0
aF433.0
aF502.0
aF497.0
aF494.0
aF475.0
aF466.0
aF487.0
aF476.0
aF501.0
aF465.0
aF454.0
aF477.0
aF498.0
aF464.0
aF491.0
aF486.0
aF499.0
aF450.0
aF481.0
aF502.0
aF461.0
aF474.0
aF487.0
aF467.0
aF469.0
aF468.0
aF466.0
aF484.0
aF497.0
aF451.0
aF478.0
aF467.0
asS'workers'
p27
I4
sS'gamma'
p28
F1.0
sS'vcount'
p29
I1000
s.