(dp0
S'niter'
p1
I100
sS'v_ad'
p2
(lp3
I100
aI100
aI100
aI100
aI100
aI100
aI100
aI100
aI100
aI100
aI100
aI100
aI100
aI100
aI100
aI100
aI100
aI100
aI100
aI100
aI100
aI100
aI100
aI100
aI100
aI100
aI100
aI100
aI100
aI100
aI100
aI100
aI100
aI100
aI100
aI100
aI100
aI100
aI100
aI100
aI100
aI100
aI100
aI100
aI100
aI100
aI100
aI100
aI100
aI100
aI100
aI100
aI100
aI100
aI100
aI100
aI100
aI100
aI100
aI100
aI100
aI100
aI100
aI100
aI100
aI100
aI100
aI100
aI100
aI100
aI100
aI100
aI100
aI100
aI100
aI100
aI100
aI100
aI100
aI100
aI100
aI100
aI100
aI100
aI100
aI100
aI100
aI100
aI100
aI100
aI100
aI100
aI100
aI100
aI100
aI100
aI100
aI100
aI100
aI100
asS'trans'
p4
F0.009741868016951951
sS'ecount'
p5
I3994
sS'name'
p6
S'B_A_1000_2'
p7
sS't_m'
p8
I22
sS'v_nonad_g'
p9
(lp10
I0
aI33
aI48
aI109
aI32
aI25
aI105
aI135
aI122
aI77
aI50
aI429
aI52
aI108
aI28
aI114
aI80
aI106
aI144
aI92
aI29
aI310
aI446
aI242
aI466
aI175
aI430
aI103
aI493
aI199
aI193
aI26
aI66
aI580
aI232
aI143
aI173
aI239
aI440
aI518
aI124
aI576
aI11
aI212
aI137
aI234
aI241
aI318
aI197
aI860
aI776
aI564
aI43
aI621
aI435
aI457
aI337
aI90
aI181
aI895
aI660
aI321
aI118
aI198
aI68
aI445
aI133
aI792
aI788
aI690
aI754
aI335
aI673
aI943
aI968
aI841
aI732
aI176
aI556
aI925
aI995
aI56
aI888
aI814
aI533
aI608
aI713
aI775
aI990
aI855
aI869
aI177
aI982
aI783
aI902
aI140
aI579
aI142
aI227
aI704
asS'pedge'
p11
F0.2
sS'r_ad'
p12
(lp13
F372.0
aF346.0
aF355.0
aF346.0
aF382.0
aF322.0
aF369.0
aF347.0
aF347.0
aF379.0
aF376.0
aF359.0
aF347.0
aF364.0
aF343.0
aF366.0
aF376.0
aF331.0
aF402.0
aF343.0
aF357.0
aF361.0
aF371.0
aF337.0
aF380.0
aF348.0
aF364.0
aF374.0
aF338.0
aF377.0
aF339.0
aF364.0
aF329.0
aF322.0
aF351.0
aF387.0
aF366.0
aF349.0
aF341.0
aF362.0
aF377.0
aF382.0
aF350.0
aF359.0
aF346.0
aF387.0
aF349.0
aF350.0
aF382.0
aF355.0
aF417.0
aF342.0
aF351.0
aF348.0
aF356.0
aF361.0
aF367.0
aF348.0
aF302.0
aF346.0
aF326.0
aF390.0
aF366.0
aF357.0
aF389.0
aF332.0
aF367.0
aF328.0
aF328.0
aF365.0
aF328.0
aF325.0
aF348.0
aF342.0
aF332.0
aF370.0
aF377.0
aF345.0
aF370.0
aF331.0
aF350.0
aF343.0
aF372.0
aF331.0
aF366.0
aF398.0
aF326.0
aF352.0
aF329.0
aF338.0
aF359.0
aF360.0
aF338.0
aF374.0
aF392.0
aF369.0
aF342.0
aF375.0
aF358.0
aF356.0
asS'v_nonad_rg'
p14
(lp15
I168
aI173
aI33
aI242
aI114
aI124
aI239
aI52
aI496
aI129
aI160
aI56
aI232
aI166
aI247
aI318
aI753
aI86
aI466
aI50
aI223
aI315
aI660
aI776
aI92
aI137
aI21
aI333
aI518
aI105
aI571
aI43
aI234
aI199
aI97
aI446
aI132
aI716
aI111
aI560
aI511
aI250
aI359
aI919
aI32
aI754
aI102
aI838
aI681
aI556
aI172
aI696
aI161
aI270
aI702
aI146
aI213
aI945
aI60
aI740
aI46
aI918
aI335
aI445
aI593
aI354
aI746
aI927
aI768
aI177
aI682
aI532
aI966
aI830
aI804
aI892
aI103
aI631
aI61
aI990
aI814
aI854
aI673
aI750
aI423
aI855
aI517
aI370
aI841
aI165
aI996
aI940
aI263
aI961
aI567
aI783
aI616
aI674
aI513
aI708
asS'nsim_ad'
p16
I1000
sS'git'
p17
S'6993752'
p18
sS'kratio'
p19
I10
sS'r_nonad_g'
p20
(lp21
F350.0
aF304.0
aF302.0
aF302.0
aF335.0
aF294.0
aF308.0
aF285.0
aF317.0
aF324.0
aF326.0
aF316.0
aF300.0
aF313.0
aF288.0
aF326.0
aF313.0
aF284.0
aF365.0
aF286.0
aF319.0
aF287.0
aF314.0
aF308.0
aF320.0
aF289.0
aF325.0
aF315.0
aF295.0
aF343.0
aF309.0
aF318.0
aF300.0
aF284.0
aF319.0
aF323.0
aF317.0
aF299.0
aF307.0
aF300.0
aF320.0
aF331.0
aF320.0
aF310.0
aF320.0
aF333.0
aF291.0
aF322.0
aF342.0
aF288.0
aF347.0
aF305.0
aF312.0
aF294.0
aF320.0
aF295.0
aF317.0
aF292.0
aF279.0
aF309.0
aF291.0
aF329.0
aF306.0
aF305.0
aF342.0
aF274.0
aF342.0
aF297.0
aF273.0
aF327.0
aF298.0
aF303.0
aF294.0
aF311.0
aF289.0
aF304.0
aF315.0
aF304.0
aF326.0
aF278.0
aF297.0
aF286.0
aF336.0
aF295.0
aF335.0
aF336.0
aF282.0
aF305.0
aF289.0
aF302.0
aF300.0
aF325.0
aF289.0
aF316.0
aF331.0
aF305.0
aF306.0
aF333.0
aF286.0
aF314.0
asS'nsim_nonad'
p22
I10000
sS't_h'
p23
I1
sS't_s'
p24
I2
sS'r_nonad_rg'
p25
(lp26
F318.0
aF289.0
aF289.0
aF303.0
aF319.0
aF284.0
aF311.0
aF290.0
aF298.0
aF322.0
aF316.0
aF313.0
aF300.0
aF298.0
aF290.0
aF313.0
aF310.0
aF285.0
aF354.0
aF281.0
aF298.0
aF278.0
aF313.0
aF292.0
aF327.0
aF312.0
aF327.0
aF305.0
aF282.0
aF323.0
aF290.0
aF325.0
aF310.0
aF263.0
aF311.0
aF312.0
aF310.0
aF306.0
aF290.0
aF289.0
aF312.0
aF341.0
aF307.0
aF309.0
aF290.0
aF331.0
aF309.0
aF313.0
aF333.0
aF279.0
aF341.0
aF276.0
aF300.0
aF307.0
aF314.0
aF302.0
aF305.0
aF298.0
aF271.0
aF305.0
aF267.0
aF327.0
aF300.0
aF314.0
aF328.0
aF270.0
aF329.0
aF287.0
aF278.0
aF312.0
aF289.0
aF291.0
aF283.0
aF283.0
aF290.0
aF301.0
aF325.0
aF299.0
aF321.0
aF270.0
aF320.0
aF291.0
aF329.0
aF290.0
aF307.0
aF338.0
aF285.0
aF285.0
aF272.0
aF275.0
aF300.0
aF327.0
aF288.0
aF293.0
aF331.0
aF282.0
aF301.0
aF317.0
aF316.0
aF308.0
asS'workers'
p27
I4
sS'gamma'
p28
F1.0
sS'vcount'
p29
I1000
s.