(dp0
S'niter'
p1
I100
sS'v_ad'
p2
(lp3
I34
aI30
aI26
aI42
aI29
aI37
aI32
aI23
aI27
aI26
aI42
aI46
aI28
aI35
aI32
aI47
aI43
aI37
aI23
aI46
aI42
aI33
aI44
aI25
aI40
aI22
aI35
aI33
aI36
aI38
aI32
aI43
aI28
aI37
aI27
aI26
aI26
aI38
aI39
aI39
aI40
aI32
aI37
aI38
aI44
aI33
aI39
aI30
aI33
aI29
aI32
aI39
aI40
aI40
aI34
aI25
aI31
aI34
aI33
aI32
aI31
aI45
aI36
aI30
aI35
aI35
aI37
aI35
aI31
aI31
aI32
aI37
aI32
aI32
aI35
aI29
aI33
aI40
aI38
aI44
aI29
aI43
aI33
aI26
aI29
aI33
aI35
aI31
aI36
aI28
aI35
aI27
aI34
aI38
aI36
aI33
aI39
aI29
aI36
aI27
asS'git'
p4
S'ec309b7'
p5
sS'ecount'
p6
I13033
sS'vcount'
p7
I1000
sS't_m'
p8
I49
sS'kratio'
p9
I10
sS'pedge'
p10
F0.1
sS'r_ad'
p11
(lp12
I292
aI330
aI335
aI282
aI331
aI311
aI320
aI342
aI306
aI344
aI279
aI233
aI312
aI310
aI296
aI263
aI252
aI321
aI343
aI276
aI289
aI314
aI248
aI340
aI273
aI331
aI305
aI295
aI302
aI310
aI332
aI273
aI346
aI304
aI340
aI342
aI319
aI319
aI301
aI291
aI318
aI346
aI286
aI283
aI287
aI302
aI277
aI327
aI313
aI340
aI316
aI268
aI270
aI308
aI290
aI347
aI337
aI329
aI327
aI309
aI307
aI270
aI303
aI316
aI312
aI293
aI312
aI290
aI306
aI359
aI324
aI296
aI310
aI309
aI323
aI318
aI323
aI278
aI292
aI247
aI339
aI287
aI302
aI359
aI334
aI331
aI323
aI337
aI286
aI311
aI277
aI327
aI294
aI305
aI306
aI350
aI277
aI305
aI286
aI320
asS'r_nonad'
p13
(lp14
I278
aI317
aI311
aI264
aI311
aI274
aI255
aI304
aI279
aI319
aI270
aI249
aI303
aI244
aI275
aI251
aI269
aI296
aI308
aI251
aI282
aI280
aI250
aI285
aI264
aI276
aI261
aI287
aI270
aI292
aI289
aI264
aI278
aI248
aI288
aI238
aI271
aI311
aI253
aI271
aI326
aI293
aI274
aI267
aI273
aI279
aI249
aI274
aI296
aI313
aI278
aI258
aI233
aI268
aI282
aI310
aI296
aI297
aI323
aI296
aI290
aI282
aI268
aI288
aI276
aI282
aI293
aI216
aI267
aI321
aI270
aI293
aI282
aI271
aI305
aI287
aI305
aI263
aI281
aI261
aI311
aI287
aI286
aI328
aI302
aI294
aI302
aI264
aI262
aI274
aI250
aI280
aI255
aI291
aI285
aI341
aI275
aI315
aI253
aI278
asS'nsim_ad'
p15
I1000
sS'nsim_nonad'
p16
I5000
sS'v_nonad'
p17
(lp18
I47
aI23
aI106
aI197
aI466
aI237
aI259
aI418
aI216
aI406
aI249
aI164
aI242
aI229
aI40
aI485
aI627
aI404
aI332
aI143
aI389
aI797
aI299
aI168
aI41
aI130
asS't_h'
p19
I2
sS't_s'
p20
I2
sS'trans'
p21
F0.8047941557912676
sS'parallel'
p22
I01
sS'gamma'
p23
I3
sS'name'
p24
S'SNAP_GR_1000'
p25
s.