(dp0
S'niter'
p1
I100
sS'v_ad'
p2
(lp3
I360
aI362
aI359
aI390
aI367
aI382
aI375
aI379
aI358
aI374
aI357
aI396
aI347
aI366
aI380
aI363
aI375
aI346
aI353
aI359
aI359
aI388
aI357
aI359
aI386
aI371
aI372
aI349
aI370
aI352
aI362
aI351
aI390
aI375
aI419
aI351
aI364
aI382
aI375
aI370
aI363
aI379
aI361
aI379
aI378
aI359
aI368
aI355
aI382
aI366
aI373
aI368
aI368
aI366
aI363
aI373
aI366
aI374
aI392
aI382
aI370
aI401
aI356
aI336
aI346
aI391
aI380
aI376
aI342
aI361
aI341
aI362
aI406
aI380
aI359
aI371
aI365
aI373
aI370
aI378
aI356
aI395
aI360
aI375
aI369
aI371
aI378
aI365
aI409
aI395
aI374
aI357
aI349
aI404
aI361
aI389
aI344
aI351
aI381
aI383
asS'trans'
p4
F0.8047941557912676
sS'ecount'
p5
I13033
sS'name'
p6
S'SNAP_GR_1000'
p7
sS't_m'
p8
I12
sS'v_nonad_g'
p9
(lp10
I0
aI61
aI110
aI127
aI75
aI212
aI397
aI177
aI136
aI305
aI40
aI239
aI129
aI130
aI153
aI144
aI299
aI174
aI168
aI389
aI441
aI41
aI306
aI380
aI171
aI340
aI143
aI347
aI383
aI437
aI253
aI243
aI497
aI439
aI603
aI162
aI163
aI207
aI221
aI418
aI103
aI444
aI289
aI199
aI242
aI187
aI288
aI82
aI292
aI857
aI313
aI309
aI801
aI479
aI178
aI413
aI428
aI403
aI339
aI657
aI518
aI146
aI550
aI128
aI318
aI563
aI283
aI275
aI131
aI140
aI154
aI576
aI844
aI209
aI628
aI541
aI337
aI182
aI419
aI640
aI297
aI499
aI394
aI511
aI619
aI939
aI665
aI505
aI293
aI579
aI256
aI685
aI388
aI668
aI544
aI635
aI648
aI357
aI469
aI120
aI695
aI257
aI274
aI412
aI181
aI757
aI825
aI395
aI448
aI926
aI959
aI929
aI682
aI933
aI588
aI711
aI727
aI558
aI751
aI707
aI816
aI371
aI387
aI846
aI559
aI533
aI586
aI660
aI410
aI159
aI647
aI658
aI393
aI715
aI717
aI689
aI338
aI449
aI461
aI591
aI644
aI254
aI581
aI984
aI834
aI860
aI833
aI753
aI716
aI599
aI938
aI789
aI353
aI516
aI978
aI675
aI870
aI987
aI634
aI471
aI286
aI829
aI976
aI849
aI417
aI595
aI864
aI947
aI698
aI876
aI779
aI951
aI955
aI901
aI839
aI912
aI888
aI788
aI785
aI557
aI808
aI945
aI487
aI759
aI998
aI827
aI319
aI446
aI696
aI650
aI838
aI641
aI345
aI985
aI179
aI508
aI850
aI739
aI600
aI500
aI748
aI440
aI618
aI531
aI725
aI818
aI997
aI435
aI762
aI975
aI885
aI484
aI433
aI831
aI845
aI971
aI697
aI561
aI722
aI810
asS'pedge'
p11
F0.1
sS'r_ad'
p12
(lp13
F497.0
aF486.0
aF486.0
aF468.0
aF496.0
aF472.0
aF465.0
aF477.0
aF495.0
aF481.0
aF497.0
aF472.0
aF499.0
aF483.0
aF479.0
aF484.0
aF483.0
aF509.0
aF494.0
aF509.0
aF490.0
aF472.0
aF492.0
aF493.0
aF470.0
aF483.0
aF487.0
aF508.0
aF477.0
aF515.0
aF490.0
aF502.0
aF463.0
aF481.0
aF449.0
aF498.0
aF499.0
aF463.0
aF482.0
aF475.0
aF489.0
aF476.0
aF478.0
aF476.0
aF479.0
aF496.0
aF490.0
aF504.0
aF474.0
aF485.0
aF482.0
aF475.0
aF485.0
aF494.0
aF477.0
aF481.0
aF490.0
aF487.0
aF470.0
aF475.0
aF500.0
aF455.0
aF491.0
aF512.0
aF505.0
aF457.0
aF471.0
aF473.0
aF507.0
aF499.0
aF512.0
aF487.0
aF452.0
aF466.0
aF494.0
aF476.0
aF488.0
aF472.0
aF490.0
aF482.0
aF482.0
aF469.0
aF496.0
aF479.0
aF478.0
aF471.0
aF480.0
aF493.0
aF443.0
aF469.0
aF479.0
aF496.0
aF496.0
aF456.0
aF495.0
aF465.0
aF509.0
aF512.0
aF471.0
aF469.0
asS'v_nonad_rg'
p14
(lp15
I791
aI385
aI714
aI532
aI823
aI352
aI5
aI281
aI112
aI143
aI65
aI469
aI664
aI464
aI801
aI815
aI606
aI422
aI355
aI963
aI252
aI144
aI381
aI290
aI677
aI935
aI212
aI213
aI586
aI708
aI160
aI560
aI347
aI408
aI185
aI296
aI872
aI274
aI129
aI695
aI479
aI616
aI543
aI431
aI421
aI599
aI485
aI634
aI649
aI439
aI692
aI688
aI495
aI598
aI372
aI235
aI896
aI141
aI338
aI590
aI680
aI826
aI752
aI305
aI297
aI268
aI998
aI622
aI669
aI863
aI309
aI295
aI668
aI917
aI986
aI748
aI311
aI552
aI929
aI604
aI380
aI951
aI394
aI161
aI967
aI715
aI255
aI526
aI170
aI304
aI702
aI308
aI687
aI792
aI833
aI874
aI256
aI934
aI353
aI728
aI571
aI810
aI885
aI665
aI760
aI437
aI999
aI988
aI316
aI392
aI944
aI980
aI627
aI525
aI506
aI781
aI745
aI458
aI393
aI350
aI974
aI670
aI577
aI519
aI875
aI522
aI470
aI703
aI751
aI314
aI209
aI773
aI950
aI852
aI901
aI721
aI955
aI417
aI228
aI373
aI444
aI520
aI631
aI574
aI614
aI473
aI103
aI945
aI313
aI499
aI279
aI630
aI984
aI414
aI681
aI615
aI467
aI866
aI923
aI782
aI227
aI723
aI846
aI650
aI591
aI787
aI233
aI978
aI803
aI679
aI831
aI600
aI298
aI673
aI682
aI891
aI690
aI371
aI771
aI937
aI761
aI753
aI390
aI489
aI975
aI448
aI933
aI832
aI919
aI749
aI776
aI387
aI707
aI502
aI484
aI954
aI838
aI283
aI558
aI829
aI595
aI726
aI938
aI416
aI528
aI547
aI415
aI819
aI594
aI356
aI288
aI725
aI778
aI512
aI642
aI413
aI629
aI734
aI926
aI676
aI881
aI624
aI701
aI541
aI275
aI930
aI351
aI514
aI611
aI318
aI518
aI924
aI635
aI471
aI570
aI731
aI412
aI340
aI685
aI953
aI453
aI889
aI566
aI628
aI697
aI280
aI844
aI976
aI643
aI500
aI605
aI696
aI593
aI973
aI869
aI877
aI812
aI671
aI575
aI762
aI759
aI487
aI732
aI435
aI674
aI853
aI827
aI839
aI886
aI641
aI970
aI870
asS'nsim_ad'
p16
I1000
sS'git'
p17
S'47da460'
p18
sS'kratio'
p19
I2
sS'r_nonad_g'
p20
(lp21
F414.0
aF399.0
aF428.0
aF397.0
aF420.0
aF354.0
aF376.0
aF409.0
aF404.0
aF392.0
aF397.0
aF400.0
aF420.0
aF397.0
aF392.0
aF389.0
aF378.0
aF409.0
aF400.0
aF414.0
aF384.0
aF429.0
aF384.0
aF388.0
aF403.0
aF399.0
aF415.0
aF428.0
aF429.0
aF431.0
aF397.0
aF402.0
aF397.0
aF392.0
aF390.0
aF422.0
aF421.0
aF381.0
aF396.0
aF394.0
aF434.0
aF393.0
aF384.0
aF413.0
aF400.0
aF408.0
aF415.0
aF417.0
aF372.0
aF412.0
aF413.0
aF416.0
aF401.0
aF423.0
aF373.0
aF409.0
aF399.0
aF402.0
aF384.0
aF400.0
aF413.0
aF377.0
aF411.0
aF422.0
aF423.0
aF371.0
aF409.0
aF396.0
aF425.0
aF404.0
aF431.0
aF417.0
aF381.0
aF378.0
aF420.0
aF398.0
aF389.0
aF381.0
aF424.0
aF383.0
aF401.0
aF415.0
aF421.0
aF407.0
aF400.0
aF387.0
aF394.0
aF410.0
aF318.0
aF398.0
aF377.0
aF407.0
aF379.0
aF372.0
aF398.0
aF380.0
aF394.0
aF435.0
aF392.0
aF431.0
asS'nsim_nonad'
p22
I10000
sS't_h'
p23
I5
sS't_s'
p24
I11
sS'r_nonad_rg'
p25
(lp26
F416.0
aF403.0
aF412.0
aF391.0
aF414.0
aF382.0
aF378.0
aF383.0
aF397.0
aF407.0
aF358.0
aF382.0
aF442.0
aF391.0
aF344.0
aF381.0
aF396.0
aF413.0
aF409.0
aF412.0
aF364.0
aF342.0
aF407.0
aF406.0
aF390.0
aF380.0
aF398.0
aF417.0
aF420.0
aF411.0
aF395.0
aF412.0
aF403.0
aF380.0
aF368.0
aF401.0
aF394.0
aF382.0
aF400.0
aF377.0
aF415.0
aF389.0
aF399.0
aF369.0
aF389.0
aF389.0
aF391.0
aF432.0
aF390.0
aF392.0
aF386.0
aF411.0
aF394.0
aF399.0
aF377.0
aF391.0
aF387.0
aF382.0
aF406.0
aF376.0
aF420.0
aF371.0
aF404.0
aF416.0
aF413.0
aF390.0
aF350.0
aF382.0
aF397.0
aF381.0
aF417.0
aF407.0
aF367.0
aF380.0
aF403.0
aF380.0
aF395.0
aF381.0
aF406.0
aF374.0
aF375.0
aF356.0
aF411.0
aF394.0
aF386.0
aF394.0
aF417.0
aF397.0
aF352.0
aF377.0
aF397.0
aF411.0
aF390.0
aF386.0
aF412.0
aF350.0
aF415.0
aF428.0
aF399.0
aF388.0
asS'workers'
p27
I4
sS'gamma'
p28
F1.0
sS'vcount'
p29
I1000
s.