(dp0
S'niter'
p1
I100
sS'v_ad'
p2
(lp3
I28
aI30
aI34
aI52
aI30
aI39
aI33
aI35
aI34
aI33
aI37
aI41
aI32
aI33
aI34
aI29
aI41
aI27
aI32
aI38
aI40
aI31
aI28
aI34
aI43
aI34
aI28
aI39
aI37
aI39
aI28
aI40
aI30
aI47
aI33
aI42
aI40
aI27
aI31
aI44
aI42
aI38
aI28
aI38
aI44
aI35
aI32
aI31
aI41
aI32
aI32
aI35
aI45
aI38
aI45
aI30
aI39
aI42
aI32
aI28
aI32
aI42
aI29
aI35
aI41
aI33
aI32
aI39
aI30
aI39
aI42
aI37
aI31
aI41
aI28
aI55
aI28
aI33
aI32
aI27
aI30
aI35
aI42
aI48
aI32
aI54
aI36
aI40
aI39
aI28
aI45
aI31
aI40
aI33
aI30
aI27
aI39
aI26
aI40
aI45
asS'trans'
p4
F0.8047941557912676
sS'ecount'
p5
I13033
sS'name'
p6
S'SNAP_GR_1000'
p7
sS't_m'
p8
I17
sS'v_nonad_g'
p9
(lp10
I0
aI61
aI110
aI127
aI75
aI212
aI397
aI177
aI136
aI305
aI40
aI239
aI129
aI130
aI153
aI144
aI299
aI174
aI168
aI389
aI441
aI41
aI306
asS'pedge'
p11
F0.1
sS'r_ad'
p12
(lp13
F322.0
aF313.0
aF300.0
aF262.0
aF317.0
aF293.0
aF315.0
aF330.0
aF307.0
aF300.0
aF269.0
aF287.0
aF344.0
aF301.0
aF296.0
aF318.0
aF257.0
aF328.0
aF298.0
aF311.0
aF269.0
aF300.0
aF347.0
aF295.0
aF254.0
aF298.0
aF310.0
aF280.0
aF300.0
aF283.0
aF322.0
aF300.0
aF314.0
aF253.0
aF299.0
aF277.0
aF287.0
aF356.0
aF344.0
aF264.0
aF260.0
aF295.0
aF312.0
aF288.0
aF261.0
aF280.0
aF304.0
aF322.0
aF264.0
aF292.0
aF325.0
aF290.0
aF262.0
aF288.0
aF286.0
aF314.0
aF277.0
aF298.0
aF307.0
aF323.0
aF315.0
aF288.0
aF310.0
aF306.0
aF299.0
aF309.0
aF316.0
aF304.0
aF321.0
aF302.0
aF265.0
aF299.0
aF311.0
aF291.0
aF337.0
aF251.0
aF328.0
aF315.0
aF302.0
aF321.0
aF304.0
aF300.0
aF303.0
aF224.0
aF332.0
aF220.0
aF306.0
aF292.0
aF272.0
aF337.0
aF274.0
aF316.0
aF285.0
aF304.0
aF319.0
aF292.0
aF298.0
aF330.0
aF292.0
aF275.0
asS'v_nonad_rg'
p14
(lp15
I13
aI73
aI271
aI224
aI517
aI119
aI347
aI368
aI223
aI436
aI466
aI143
aI153
aI355
aI664
aI741
aI160
aI469
aI249
aI161
aI229
aI40
aI103
aI168
aI393
aI144
asS'nsim_ad'
p16
I1000
sS'git'
p17
S'348e69a'
p18
sS'kratio'
p19
I10
sS'r_nonad_g'
p20
(lp21
F304.0
aF267.0
aF292.0
aF252.0
aF305.0
aF241.0
aF262.0
aF321.0
aF268.0
aF275.0
aF263.0
aF263.0
aF308.0
aF263.0
aF294.0
aF294.0
aF236.0
aF301.0
aF303.0
aF265.0
aF250.0
aF256.0
aF298.0
aF292.0
aF228.0
aF274.0
aF261.0
aF271.0
aF311.0
aF279.0
aF274.0
aF279.0
aF297.0
aF254.0
aF250.0
aF288.0
aF225.0
aF329.0
aF289.0
aF246.0
aF258.0
aF255.0
aF284.0
aF278.0
aF258.0
aF280.0
aF269.0
aF320.0
aF257.0
aF269.0
aF279.0
aF275.0
aF229.0
aF260.0
aF301.0
aF314.0
aF295.0
aF316.0
aF309.0
aF291.0
aF290.0
aF278.0
aF266.0
aF234.0
aF287.0
aF300.0
aF259.0
aF287.0
aF252.0
aF251.0
aF275.0
aF294.0
aF309.0
aF275.0
aF296.0
aF289.0
aF314.0
aF262.0
aF311.0
aF305.0
aF293.0
aF273.0
aF312.0
aF214.0
aF316.0
aF228.0
aF283.0
aF252.0
aF250.0
aF299.0
aF305.0
aF291.0
aF268.0
aF272.0
aF290.0
aF278.0
aF241.0
aF293.0
aF259.0
aF271.0
asS'nsim_nonad'
p22
I10000
sS't_h'
p23
I1
sS't_s'
p24
I1
sS'r_nonad_rg'
p25
(lp26
F277.0
aF292.0
aF283.0
aF209.0
aF279.0
aF278.0
aF246.0
aF329.0
aF295.0
aF284.0
aF247.0
aF244.0
aF315.0
aF248.0
aF303.0
aF310.0
aF268.0
aF306.0
aF276.0
aF266.0
aF266.0
aF252.0
aF330.0
aF265.0
aF218.0
aF287.0
aF302.0
aF277.0
aF284.0
aF275.0
aF306.0
aF286.0
aF293.0
aF237.0
aF278.0
aF264.0
aF261.0
aF312.0
aF322.0
aF260.0
aF254.0
aF240.0
aF283.0
aF271.0
aF280.0
aF237.0
aF241.0
aF270.0
aF240.0
aF282.0
aF297.0
aF274.0
aF247.0
aF284.0
aF273.0
aF308.0
aF236.0
aF282.0
aF299.0
aF299.0
aF242.0
aF263.0
aF275.0
aF278.0
aF252.0
aF291.0
aF273.0
aF277.0
aF246.0
aF282.0
aF213.0
aF269.0
aF278.0
aF280.0
aF265.0
aF296.0
aF232.0
aF283.0
aF255.0
aF291.0
aF276.0
aF289.0
aF277.0
aF245.0
aF286.0
aF225.0
aF261.0
aF249.0
aF287.0
aF339.0
aF229.0
aF247.0
aF263.0
aF270.0
aF283.0
aF268.0
aF252.0
aF282.0
aF259.0
aF244.0
asS'workers'
p27
I4
sS'gamma'
p28
F3.0
sS'vcount'
p29
I1000
s.