(dp0
S'niter'
p1
I100
sS'v_ad'
p2
(lp3
I79
aI77
aI65
aI84
aI72
aI70
aI80
aI68
aI61
aI57
aI61
aI80
aI66
aI76
aI75
aI59
aI88
aI78
aI71
aI79
aI74
aI74
aI85
aI87
aI74
aI73
aI76
aI79
aI66
aI82
aI74
aI70
aI74
aI59
aI80
aI100
aI74
aI66
aI64
aI61
aI72
aI58
aI74
aI72
aI91
aI62
aI78
aI63
aI87
aI87
aI83
aI72
aI85
aI77
aI76
aI77
aI91
aI76
aI78
aI83
aI82
aI71
aI89
aI69
aI93
aI75
aI75
aI70
aI74
aI70
aI79
aI51
aI75
aI71
aI67
aI64
aI75
aI80
aI77
aI85
aI78
aI78
aI59
aI73
aI75
aI96
aI74
aI77
aI62
aI74
aI80
aI67
aI88
aI69
aI78
aI75
aI76
aI78
aI86
aI77
asS'trans'
p4
F0.8047941557912676
sS'ecount'
p5
I13033
sS'name'
p6
S'SNAP_GR_1000'
p7
sS't_m'
p8
I7
sS'v_nonad_g'
p9
(lp10
I48
aI172
aI79
aI424
aI391
aI469
aI783
aI393
aI462
aI544
aI641
aI146
aI284
aI518
aI846
aI864
aI256
aI657
aI419
aI845
aI948
aI851
aI547
aI933
aI844
aI929
aI852
aI504
aI581
aI695
aI715
aI930
aI727
aI900
aI939
aI673
aI484
aI788
aI945
aI756
aI785
aI649
aI631
aI500
asS'pedge'
p11
F0.3
sS'r_ad'
p12
(lp13
F825.0
aF832.0
aF842.0
aF822.0
aF827.0
aF832.0
aF838.0
aF837.0
aF841.0
aF854.0
aF846.0
aF816.0
aF838.0
aF818.0
aF823.0
aF838.0
aF799.0
aF815.0
aF832.0
aF822.0
aF834.0
aF829.0
aF824.0
aF809.0
aF832.0
aF838.0
aF834.0
aF828.0
aF827.0
aF814.0
aF829.0
aF827.0
aF830.0
aF846.0
aF824.0
aF791.0
aF834.0
aF839.0
aF839.0
aF841.0
aF842.0
aF848.0
aF821.0
aF834.0
aF815.0
aF833.0
aF832.0
aF831.0
aF826.0
aF807.0
aF818.0
aF818.0
aF827.0
aF820.0
aF831.0
aF827.0
aF808.0
aF816.0
aF826.0
aF826.0
aF820.0
aF835.0
aF814.0
aF831.0
aF816.0
aF820.0
aF822.0
aF834.0
aF828.0
aF829.0
aF829.0
aF850.0
aF846.0
aF821.0
aF833.0
aF847.0
aF830.0
aF826.0
aF831.0
aF807.0
aF827.0
aF826.0
aF848.0
aF829.0
aF819.0
aF798.0
aF830.0
aF833.0
aF842.0
aF826.0
aF825.0
aF832.0
aF810.0
aF816.0
aF823.0
aF840.0
aF818.0
aF815.0
aF816.0
aF834.0
asS'v_nonad_rg'
p14
(lp15
I16
aI79
aI193
aI904
aI678
aI407
aI481
aI857
aI204
aI641
aI389
aI782
aI666
aI316
aI727
aI939
aI977
aI970
aI978
aI288
aI713
aI657
aI508
aI435
aI667
aI716
aI650
aI900
aI852
aI594
aI901
aI673
aI756
aI945
aI837
aI717
aI553
aI484
aI933
aI949
aI630
aI490
aI631
aI845
aI695
aI893
aI704
aI558
aI785
aI715
aI959
asS'nsim_ad'
p16
I1000
sS'git'
p17
S'47da460'
p18
sS'kratio'
p19
I10
sS'r_nonad_g'
p20
(lp21
F764.0
aF790.0
aF810.0
aF791.0
aF780.0
aF786.0
aF783.0
aF796.0
aF802.0
aF822.0
aF813.0
aF758.0
aF783.0
aF781.0
aF770.0
aF792.0
aF740.0
aF784.0
aF792.0
aF765.0
aF793.0
aF801.0
aF768.0
aF764.0
aF770.0
aF780.0
aF794.0
aF781.0
aF794.0
aF772.0
aF790.0
aF780.0
aF791.0
aF806.0
aF793.0
aF746.0
aF796.0
aF800.0
aF798.0
aF804.0
aF798.0
aF808.0
aF792.0
aF795.0
aF775.0
aF796.0
aF774.0
aF795.0
aF777.0
aF775.0
aF768.0
aF777.0
aF772.0
aF780.0
aF802.0
aF769.0
aF772.0
aF767.0
aF791.0
aF773.0
aF770.0
aF798.0
aF762.0
aF795.0
aF765.0
aF753.0
aF793.0
aF795.0
aF780.0
aF796.0
aF790.0
aF813.0
aF776.0
aF789.0
aF784.0
aF811.0
aF773.0
aF778.0
aF795.0
aF753.0
aF779.0
aF798.0
aF793.0
aF788.0
aF775.0
aF754.0
aF795.0
aF784.0
aF800.0
aF783.0
aF780.0
aF792.0
aF754.0
aF780.0
aF792.0
aF803.0
aF781.0
aF771.0
aF778.0
aF785.0
asS'nsim_nonad'
p22
I10000
sS't_h'
p23
I1
sS't_s'
p24
I25
sS'r_nonad_rg'
p25
(lp26
F762.0
aF805.0
aF804.0
aF789.0
aF789.0
aF783.0
aF777.0
aF798.0
aF797.0
aF812.0
aF809.0
aF762.0
aF789.0
aF776.0
aF774.0
aF783.0
aF747.0
aF778.0
aF790.0
aF784.0
aF775.0
aF800.0
aF772.0
aF758.0
aF769.0
aF775.0
aF800.0
aF782.0
aF791.0
aF765.0
aF787.0
aF781.0
aF793.0
aF798.0
aF770.0
aF722.0
aF796.0
aF803.0
aF802.0
aF796.0
aF794.0
aF806.0
aF787.0
aF798.0
aF766.0
aF792.0
aF789.0
aF790.0
aF770.0
aF777.0
aF772.0
aF767.0
aF770.0
aF781.0
aF791.0
aF774.0
aF767.0
aF772.0
aF783.0
aF769.0
aF777.0
aF797.0
aF770.0
aF789.0
aF768.0
aF757.0
aF792.0
aF796.0
aF777.0
aF791.0
aF790.0
aF806.0
aF779.0
aF787.0
aF775.0
aF808.0
aF775.0
aF776.0
aF788.0
aF757.0
aF783.0
aF786.0
aF783.0
aF790.0
aF780.0
aF751.0
aF786.0
aF790.0
aF798.0
aF784.0
aF777.0
aF795.0
aF760.0
aF785.0
aF786.0
aF797.0
aF775.0
aF775.0
aF778.0
aF793.0
asS'workers'
p27
I4
sS'gamma'
p28
F1.0
sS'vcount'
p29
I1000
s.