(dp0
S'niter'
p1
I100
sS'v_ad'
p2
(lp3
I75
aI62
aI71
aI79
aI60
aI64
aI70
aI62
aI63
aI79
aI77
aI77
aI72
aI65
aI84
aI76
aI80
aI66
aI72
aI68
aI73
aI66
aI89
aI68
aI61
aI64
aI63
aI72
aI73
aI64
aI70
aI61
aI81
aI73
aI68
aI79
aI77
aI72
aI73
aI68
aI75
aI72
aI73
aI74
aI79
aI81
aI76
aI65
aI70
aI73
aI68
aI63
aI81
aI58
aI70
aI71
aI65
aI83
aI75
aI74
aI69
aI72
aI73
aI74
aI88
aI87
aI58
aI69
aI68
aI76
aI80
aI59
aI83
aI62
aI78
aI84
aI79
aI66
aI66
aI71
aI83
aI71
aI64
aI68
aI86
aI78
aI69
aI54
aI78
aI85
aI80
aI73
aI69
aI71
aI75
aI77
aI66
aI83
aI79
aI76
asS'trans'
p4
F0.6892001655525245
sS'ecount'
p5
I45990
sS'name'
p6
S'SNAP_FB_1000'
p7
sS't_m'
p8
I17
sS'v_nonad_g'
p9
(lp10
I145
aI7
aI342
aI127
aI66
aI162
aI396
aI293
aI431
aI152
aI284
aI214
aI382
aI306
aI208
aI100
aI682
aI507
aI392
aI644
aI84
aI39
aI621
aI579
aI335
aI76
aI655
aI622
aI483
aI619
aI902
aI355
aI760
aI878
aI159
aI267
aI650
aI449
aI665
aI494
aI749
aI161
aI714
aI365
aI305
aI510
asS'pedge'
p11
F0.05
sS'r_ad'
p12
(lp13
I414
aI469
aI436
aI411
aI471
aI466
aI427
aI464
aI467
aI404
aI421
aI420
aI454
aI463
aI423
aI433
aI418
aI449
aI451
aI457
aI430
aI468
aI389
aI445
aI464
aI462
aI475
aI454
aI458
aI465
aI446
aI464
aI401
aI423
aI450
aI426
aI410
aI423
aI442
aI464
aI443
aI428
aI433
aI429
aI419
aI417
aI415
aI454
aI448
aI423
aI441
aI458
aI401
aI469
aI467
aI455
aI467
aI402
aI444
aI415
aI461
aI443
aI450
aI438
aI389
aI409
aI473
aI445
aI446
aI418
aI414
aI482
aI437
aI452
aI429
aI398
aI424
aI444
aI460
aI446
aI393
aI433
aI460
aI461
aI408
aI414
aI440
aI480
aI426
aI400
aI398
aI431
aI442
aI439
aI417
aI440
aI450
aI400
aI437
aI428
asS'v_nonad_rg'
p14
(lp15
I48
aI347
aI190
aI335
aI249
aI528
aI98
aI451
aI290
aI449
aI66
aI162
aI401
aI893
aI902
aI542
aI305
aI755
aI396
aI494
aI734
aI434
aI670
aI731
aI77
aI763
aI787
aI397
aI380
aI379
aI23
aI491
aI632
aI682
aI878
aI472
aI365
aI705
aI355
aI621
aI39
aI453
aI366
aI744
aI751
aI788
aI510
aI208
aI650
aI647
aI80
aI726
aI315
aI655
aI579
aI478
aI714
aI100
aI89
aI392
aI306
aI342
aI293
aI127
aI84
aI284
aI145
aI431
aI507
aI382
aI644
aI7
asS'nsim_ad'
p16
I1000
sS'git'
p17
S'122a843'
p18
sS'kratio'
p19
I10
sS'r_nonad_g'
p20
(lp21
I442
aI499
aI467
aI446
aI471
aI496
aI440
aI505
aI492
aI423
aI430
aI400
aI455
aI474
aI439
aI470
aI434
aI468
aI488
aI471
aI446
aI502
aI442
aI450
aI455
aI456
aI481
aI457
aI493
aI436
aI439
aI467
aI441
aI437
aI466
aI423
aI430
aI435
aI449
aI480
aI483
aI435
aI433
aI421
aI451
aI448
aI426
aI474
aI471
aI436
aI421
aI444
aI411
aI466
aI436
aI475
aI448
aI375
aI474
aI441
aI493
aI483
aI490
aI471
aI417
aI439
aI474
aI469
aI493
aI450
aI427
aI490
aI446
aI463
aI467
aI442
aI463
aI454
aI498
aI485
aI426
aI465
aI428
aI463
aI460
aI441
aI469
aI483
aI449
aI447
aI447
aI462
aI472
aI453
aI432
aI467
aI464
aI421
aI445
aI436
asS'nsim_nonad'
p22
I10000
sS't_h'
p23
I8
sS't_s'
p24
I13
sS'r_nonad_rg'
p25
(lp26
I415
aI458
aI431
aI391
aI423
aI452
aI393
aI460
aI446
aI382
aI402
aI376
aI433
aI435
aI436
aI412
aI406
aI436
aI435
aI436
aI409
aI439
aI422
aI408
aI408
aI432
aI448
aI420
aI449
aI429
aI400
aI441
aI429
aI396
aI412
aI416
aI426
aI410
aI410
aI437
aI438
aI408
aI431
aI418
aI412
aI407
aI398
aI438
aI423
aI408
aI426
aI419
aI410
aI439
aI430
aI425
aI430
aI392
aI424
aI414
aI444
aI435
aI449
aI437
aI389
aI402
aI432
aI436
aI438
aI375
aI413
aI442
aI403
aI422
aI453
aI396
aI427
aI428
aI448
aI440
aI395
aI399
aI428
aI448
aI417
aI393
aI414
aI438
aI424
aI401
aI406
aI433
aI433
aI424
aI412
aI449
aI446
aI400
aI412
aI427
asS'parallel'
p27
I01
sS'gamma'
p28
I3
sS'vcount'
p29
I1000
s.