(dp0
S'niter'
p1
I100
sS'v_ad'
p2
(lp3
I14
aI13
aI18
aI22
aI13
aI18
aI15
aI13
aI13
aI15
aI15
aI22
aI16
aI11
aI15
aI14
aI24
aI16
aI17
aI13
aI21
aI14
aI10
aI13
aI15
aI11
aI16
aI15
aI13
aI16
aI16
aI22
aI21
aI11
aI11
aI21
aI16
aI13
aI12
aI15
aI20
aI15
aI16
aI19
aI14
aI18
aI18
aI17
aI13
aI21
aI20
aI22
aI12
aI19
aI19
aI14
aI30
aI15
aI16
aI16
aI17
aI21
aI12
aI20
aI14
aI14
aI17
aI20
aI19
aI16
aI15
aI22
aI14
aI16
aI13
aI18
aI17
aI18
aI14
aI13
aI12
aI15
aI11
aI14
aI15
aI16
aI15
aI16
aI15
aI16
aI18
aI14
aI13
aI11
aI19
aI17
aI14
aI14
aI16
aI12
asS'trans'
p4
F0.8047941557912676
sS'ecount'
p5
I13033
sS'name'
p6
S'SNAP_GR_1000'
p7
sS't_m'
p8
I50
sS'v_nonad_g'
p9
(lp10
I0
aI61
aI110
aI127
aI75
aI212
aI397
aI177
aI136
aI305
aI40
asS'pedge'
p11
F0.1
sS'r_ad'
p12
(lp13
F301.0
aF247.0
aF251.0
aF205.0
aF297.0
aF262.0
aF263.0
aF302.0
aF286.0
aF274.0
aF255.0
aF217.0
aF239.0
aF304.0
aF260.0
aF265.0
aF196.0
aF277.0
aF263.0
aF259.0
aF230.0
aF267.0
aF327.0
aF252.0
aF284.0
aF277.0
aF252.0
aF273.0
aF273.0
aF241.0
aF247.0
aF231.0
aF224.0
aF276.0
aF293.0
aF232.0
aF268.0
aF251.0
aF289.0
aF271.0
aF198.0
aF286.0
aF281.0
aF247.0
aF301.0
aF251.0
aF241.0
aF252.0
aF286.0
aF245.0
aF243.0
aF233.0
aF273.0
aF260.0
aF254.0
aF266.0
aF190.0
aF245.0
aF305.0
aF261.0
aF258.0
aF245.0
aF298.0
aF251.0
aF271.0
aF313.0
aF256.0
aF259.0
aF222.0
aF248.0
aF231.0
aF216.0
aF296.0
aF250.0
aF271.0
aF235.0
aF245.0
aF251.0
aF278.0
aF295.0
aF284.0
aF246.0
aF283.0
aF287.0
aF270.0
aF269.0
aF286.0
aF266.0
aF271.0
aF273.0
aF254.0
aF280.0
aF288.0
aF300.0
aF242.0
aF263.0
aF260.0
aF285.0
aF271.0
aF298.0
asS'v_nonad_rg'
p14
(lp15
I13
aI73
aI271
aI224
aI517
aI119
aI347
aI437
aI194
aI167
aI177
aI130
aI40
asS'nsim_ad'
p16
I1000
sS'git'
p17
S'348e69a'
p18
sS'kratio'
p19
I10
sS'r_nonad_g'
p20
(lp21
F255.0
aF248.0
aF245.0
aF247.0
aF286.0
aF247.0
aF221.0
aF288.0
aF243.0
aF259.0
aF185.0
aF207.0
aF246.0
aF271.0
aF255.0
aF230.0
aF220.0
aF264.0
aF262.0
aF254.0
aF236.0
aF222.0
aF302.0
aF228.0
aF269.0
aF214.0
aF213.0
aF261.0
aF268.0
aF215.0
aF245.0
aF221.0
aF217.0
aF223.0
aF263.0
aF183.0
aF277.0
aF231.0
aF242.0
aF257.0
aF198.0
aF283.0
aF264.0
aF238.0
aF293.0
aF258.0
aF224.0
aF265.0
aF245.0
aF255.0
aF215.0
aF254.0
aF269.0
aF224.0
aF249.0
aF252.0
aF220.0
aF268.0
aF273.0
aF206.0
aF283.0
aF232.0
aF282.0
aF211.0
aF231.0
aF298.0
aF260.0
aF274.0
aF203.0
aF270.0
aF222.0
aF152.0
aF233.0
aF231.0
aF215.0
aF241.0
aF199.0
aF240.0
aF278.0
aF272.0
aF295.0
aF249.0
aF289.0
aF255.0
aF234.0
aF256.0
aF257.0
aF218.0
aF245.0
aF257.0
aF208.0
aF269.0
aF257.0
aF301.0
aF253.0
aF265.0
aF221.0
aF280.0
aF263.0
aF284.0
asS'nsim_nonad'
p22
I10000
sS't_h'
p23
I0
sS't_s'
p24
I21
sS'r_nonad_rg'
p25
(lp26
F276.0
aF253.0
aF258.0
aF234.0
aF296.0
aF252.0
aF257.0
aF267.0
aF259.0
aF261.0
aF225.0
aF203.0
aF244.0
aF283.0
aF225.0
aF174.0
aF191.0
aF259.0
aF248.0
aF242.0
aF236.0
aF216.0
aF309.0
aF225.0
aF277.0
aF259.0
aF216.0
aF278.0
aF271.0
aF229.0
aF223.0
aF238.0
aF228.0
aF250.0
aF243.0
aF191.0
aF287.0
aF234.0
aF281.0
aF252.0
aF178.0
aF253.0
aF282.0
aF265.0
aF292.0
aF209.0
aF224.0
aF234.0
aF219.0
aF200.0
aF227.0
aF241.0
aF252.0
aF213.0
aF242.0
aF230.0
aF189.0
aF258.0
aF215.0
aF231.0
aF270.0
aF213.0
aF286.0
aF224.0
aF224.0
aF301.0
aF257.0
aF229.0
aF250.0
aF261.0
aF222.0
aF183.0
aF271.0
aF243.0
aF237.0
aF256.0
aF207.0
aF239.0
aF271.0
aF249.0
aF285.0
aF255.0
aF281.0
aF276.0
aF260.0
aF277.0
aF244.0
aF214.0
aF231.0
aF245.0
aF262.0
aF263.0
aF241.0
aF291.0
aF233.0
aF221.0
aF256.0
aF260.0
aF225.0
aF264.0
asS'workers'
p27
I4
sS'gamma'
p28
F5.0
sS'vcount'
p29
I1000
s.