(dp0
S'niter'
p1
I100
sS'v_ad'
p2
(lp3
I63
aI80
aI64
aI70
aI59
aI79
aI75
aI72
aI76
aI94
aI74
aI63
aI69
aI68
aI95
aI85
aI72
aI78
aI59
aI68
aI64
aI76
aI64
aI70
aI64
aI76
aI75
aI77
aI74
aI68
aI77
aI85
aI72
aI61
aI74
aI63
aI76
aI81
aI80
aI75
aI73
aI76
aI79
aI63
aI76
aI76
aI71
aI68
aI73
aI67
aI49
aI65
aI78
aI69
aI78
aI79
aI64
aI67
aI65
aI79
aI67
aI66
aI60
aI65
aI84
aI71
aI71
aI81
aI70
aI57
aI63
aI71
aI72
aI67
aI93
aI66
aI71
aI78
aI84
aI83
aI77
aI66
aI64
aI76
aI74
aI64
aI68
aI68
aI76
aI73
aI74
aI62
aI51
aI73
aI63
aI55
aI66
aI71
aI72
aI64
asS'trans'
p4
F0.8047941557912676
sS'ecount'
p5
I13033
sS'name'
p6
S'SNAP_GR_1000'
p7
sS't_m'
p8
I55
sS'v_nonad_g'
p9
(lp10
I0
aI61
aI110
aI127
aI75
aI212
aI397
aI177
aI136
aI305
aI40
aI239
aI129
aI130
aI153
aI144
aI299
aI174
aI168
aI389
aI441
aI41
aI306
aI380
aI171
aI340
aI143
aI347
aI383
aI437
aI253
aI243
aI497
aI439
aI603
aI162
aI163
aI207
aI221
aI418
aI103
aI444
aI289
aI199
aI242
aI187
aI288
asS'pedge'
p11
F0.1
sS'r_ad'
p12
(lp13
F355.0
aF320.0
aF355.0
aF355.0
aF373.0
aF313.0
aF324.0
aF345.0
aF312.0
aF289.0
aF342.0
aF367.0
aF355.0
aF334.0
aF266.0
aF296.0
aF315.0
aF330.0
aF370.0
aF343.0
aF359.0
aF347.0
aF387.0
aF340.0
aF368.0
aF354.0
aF322.0
aF322.0
aF337.0
aF338.0
aF328.0
aF323.0
aF336.0
aF378.0
aF347.0
aF363.0
aF316.0
aF331.0
aF321.0
aF339.0
aF342.0
aF311.0
aF304.0
aF356.0
aF334.0
aF325.0
aF344.0
aF355.0
aF341.0
aF362.0
aF400.0
aF381.0
aF321.0
aF348.0
aF335.0
aF369.0
aF348.0
aF346.0
aF369.0
aF325.0
aF357.0
aF370.0
aF374.0
aF363.0
aF300.0
aF318.0
aF336.0
aF339.0
aF342.0
aF376.0
aF361.0
aF351.0
aF350.0
aF358.0
aF304.0
aF360.0
aF345.0
aF341.0
aF303.0
aF312.0
aF310.0
aF352.0
aF337.0
aF347.0
aF322.0
aF352.0
aF333.0
aF334.0
aF321.0
aF311.0
aF332.0
aF368.0
aF382.0
aF317.0
aF358.0
aF374.0
aF381.0
aF340.0
aF339.0
aF340.0
asS'v_nonad_rg'
p14
(lp15
I13
aI73
aI271
aI224
aI517
aI119
aI347
aI368
aI223
aI436
aI466
aI143
aI153
aI355
aI339
aI235
aI350
aI384
aI962
aI393
aI338
aI658
aI934
aI567
aI566
aI529
aI174
aI292
aI131
aI396
aI41
aI208
aI314
aI283
aI306
aI316
aI165
aI495
aI430
aI315
aI505
aI415
aI544
aI182
aI171
aI163
aI497
aI150
aI255
aI243
aI310
aI164
aI242
asS'nsim_ad'
p16
I1000
sS'git'
p17
S'348e69a'
p18
sS'kratio'
p19
I10
sS'r_nonad_g'
p20
(lp21
F325.0
aF314.0
aF303.0
aF339.0
aF308.0
aF317.0
aF308.0
aF312.0
aF281.0
aF280.0
aF277.0
aF266.0
aF352.0
aF300.0
aF262.0
aF277.0
aF265.0
aF320.0
aF343.0
aF298.0
aF330.0
aF302.0
aF362.0
aF316.0
aF326.0
aF318.0
aF315.0
aF315.0
aF318.0
aF304.0
aF310.0
aF297.0
aF301.0
aF343.0
aF300.0
aF351.0
aF304.0
aF324.0
aF266.0
aF297.0
aF332.0
aF301.0
aF283.0
aF341.0
aF277.0
aF305.0
aF316.0
aF324.0
aF270.0
aF348.0
aF361.0
aF358.0
aF302.0
aF300.0
aF336.0
aF327.0
aF323.0
aF290.0
aF338.0
aF306.0
aF301.0
aF346.0
aF353.0
aF321.0
aF291.0
aF289.0
aF304.0
aF332.0
aF291.0
aF315.0
aF319.0
aF301.0
aF318.0
aF323.0
aF253.0
aF304.0
aF314.0
aF314.0
aF283.0
aF270.0
aF280.0
aF317.0
aF322.0
aF340.0
aF283.0
aF315.0
aF317.0
aF303.0
aF298.0
aF311.0
aF292.0
aF310.0
aF347.0
aF308.0
aF325.0
aF345.0
aF354.0
aF299.0
aF309.0
aF311.0
asS'nsim_nonad'
p22
I10000
sS't_h'
p23
I1
sS't_s'
p24
I47
sS'r_nonad_rg'
p25
(lp26
F324.0
aF296.0
aF292.0
aF331.0
aF294.0
aF287.0
aF303.0
aF309.0
aF277.0
aF255.0
aF311.0
aF303.0
aF309.0
aF273.0
aF265.0
aF279.0
aF283.0
aF290.0
aF342.0
aF302.0
aF316.0
aF319.0
aF351.0
aF319.0
aF350.0
aF299.0
aF288.0
aF297.0
aF283.0
aF298.0
aF300.0
aF272.0
aF286.0
aF334.0
aF300.0
aF303.0
aF302.0
aF305.0
aF309.0
aF337.0
aF278.0
aF233.0
aF294.0
aF353.0
aF264.0
aF301.0
aF324.0
aF307.0
aF299.0
aF332.0
aF363.0
aF313.0
aF281.0
aF312.0
aF335.0
aF335.0
aF317.0
aF295.0
aF331.0
aF296.0
aF293.0
aF304.0
aF324.0
aF314.0
aF267.0
aF306.0
aF278.0
aF336.0
aF309.0
aF332.0
aF325.0
aF309.0
aF312.0
aF307.0
aF262.0
aF289.0
aF318.0
aF298.0
aF273.0
aF297.0
aF293.0
aF298.0
aF347.0
aF341.0
aF296.0
aF311.0
aF318.0
aF298.0
aF306.0
aF248.0
aF277.0
aF291.0
aF334.0
aF270.0
aF322.0
aF336.0
aF315.0
aF308.0
aF300.0
aF300.0
asS'workers'
p27
I4
sS'gamma'
p28
F2.0
sS'vcount'
p29
I1000
s.