(dp0
S'niter'
p1
I100
sS'v_ad'
p2
(lp3
I14
aI17
aI19
aI21
aI24
aI21
aI14
aI19
aI17
aI16
aI14
aI22
aI15
aI12
aI13
aI23
aI19
aI20
aI17
aI15
aI14
aI15
aI18
aI14
aI15
aI22
aI19
aI19
aI18
aI14
aI21
aI17
aI16
aI26
aI17
aI17
aI19
aI17
aI16
aI17
aI10
aI19
aI16
aI15
aI21
aI25
aI13
aI20
aI18
aI13
aI12
aI20
aI19
aI12
aI19
aI11
aI14
aI20
aI21
aI16
aI18
aI16
aI18
aI15
aI17
aI16
aI16
aI23
aI20
aI17
aI17
aI20
aI21
aI24
aI12
aI17
aI25
aI23
aI15
aI15
aI15
aI13
aI18
aI14
aI22
aI27
aI19
aI13
aI14
aI18
aI17
aI21
aI20
aI25
aI16
aI10
aI15
aI18
aI22
aI23
asS'trans'
p4
F0.8047941557912676
sS'ecount'
p5
I13033
sS'name'
p6
S'SNAP_GR_1000'
p7
sS't_m'
p8
I44
sS'v_nonad_g'
p9
(lp10
I166
aI172
aI422
aI78
aI776
aI910
aI635
aI852
aI704
aI866
aI651
aI930
aI900
aI581
asS'pedge'
p11
F0.5
sS'r_ad'
p12
(lp13
F929.0
aF929.0
aF930.0
aF930.0
aF928.0
aF934.0
aF935.0
aF931.0
aF934.0
aF931.0
aF931.0
aF935.0
aF930.0
aF937.0
aF935.0
aF921.0
aF930.0
aF925.0
aF931.0
aF938.0
aF937.0
aF936.0
aF936.0
aF935.0
aF932.0
aF928.0
aF936.0
aF920.0
aF938.0
aF935.0
aF922.0
aF923.0
aF931.0
aF916.0
aF922.0
aF923.0
aF929.0
aF926.0
aF935.0
aF927.0
aF942.0
aF936.0
aF925.0
aF939.0
aF931.0
aF923.0
aF934.0
aF927.0
aF938.0
aF933.0
aF934.0
aF925.0
aF930.0
aF941.0
aF927.0
aF939.0
aF934.0
aF936.0
aF931.0
aF943.0
aF936.0
aF932.0
aF932.0
aF939.0
aF938.0
aF931.0
aF935.0
aF932.0
aF930.0
aF929.0
aF941.0
aF932.0
aF926.0
aF929.0
aF930.0
aF936.0
aF924.0
aF927.0
aF928.0
aF935.0
aF928.0
aF948.0
aF934.0
aF940.0
aF922.0
aF916.0
aF932.0
aF942.0
aF932.0
aF928.0
aF923.0
aF933.0
aF930.0
aF929.0
aF928.0
aF937.0
aF944.0
aF925.0
aF925.0
aF918.0
asS'v_nonad_rg'
p14
(lp15
I8
aI422
aI418
aI104
aI715
aI212
aI852
aI752
aI846
aI706
aI704
aI900
aI930
aI581
aI945
asS'nsim_ad'
p16
I1000
sS'git'
p17
S'674f73d'
p18
sS'kratio'
p19
I10
sS'r_nonad_g'
p20
(lp21
F921.0
aF912.0
aF915.0
aF923.0
aF913.0
aF921.0
aF927.0
aF921.0
aF902.0
aF918.0
aF910.0
aF924.0
aF919.0
aF927.0
aF923.0
aF907.0
aF913.0
aF911.0
aF919.0
aF928.0
aF923.0
aF928.0
aF919.0
aF921.0
aF926.0
aF915.0
aF923.0
aF909.0
aF905.0
aF929.0
aF911.0
aF917.0
aF920.0
aF899.0
aF903.0
aF904.0
aF917.0
aF910.0
aF917.0
aF916.0
aF934.0
aF918.0
aF913.0
aF923.0
aF909.0
aF898.0
aF915.0
aF912.0
aF918.0
aF919.0
aF917.0
aF914.0
aF891.0
aF930.0
aF906.0
aF917.0
aF921.0
aF922.0
aF916.0
aF933.0
aF923.0
aF917.0
aF920.0
aF924.0
aF933.0
aF917.0
aF914.0
aF912.0
aF924.0
aF910.0
aF921.0
aF919.0
aF909.0
aF910.0
aF915.0
aF924.0
aF910.0
aF913.0
aF918.0
aF913.0
aF913.0
aF933.0
aF912.0
aF927.0
aF905.0
aF901.0
aF907.0
aF930.0
aF921.0
aF909.0
aF915.0
aF913.0
aF913.0
aF914.0
aF912.0
aF922.0
aF931.0
aF917.0
aF905.0
aF894.0
asS'nsim_nonad'
p22
I10000
sS't_h'
p23
I1
sS't_s'
p24
I22
sS'r_nonad_rg'
p25
(lp26
F919.0
aF913.0
aF913.0
aF921.0
aF914.0
aF919.0
aF924.0
aF917.0
aF901.0
aF920.0
aF909.0
aF925.0
aF918.0
aF926.0
aF924.0
aF907.0
aF914.0
aF909.0
aF917.0
aF928.0
aF924.0
aF928.0
aF915.0
aF921.0
aF924.0
aF917.0
aF923.0
aF909.0
aF905.0
aF927.0
aF911.0
aF913.0
aF922.0
aF901.0
aF903.0
aF903.0
aF916.0
aF909.0
aF917.0
aF915.0
aF935.0
aF918.0
aF913.0
aF911.0
aF905.0
aF899.0
aF913.0
aF910.0
aF919.0
aF920.0
aF915.0
aF912.0
aF894.0
aF925.0
aF903.0
aF915.0
aF918.0
aF919.0
aF913.0
aF932.0
aF921.0
aF916.0
aF920.0
aF921.0
aF931.0
aF914.0
aF915.0
aF913.0
aF921.0
aF910.0
aF919.0
aF919.0
aF907.0
aF912.0
aF914.0
aF922.0
aF909.0
aF914.0
aF916.0
aF909.0
aF911.0
aF932.0
aF912.0
aF927.0
aF907.0
aF900.0
aF908.0
aF930.0
aF920.0
aF908.0
aF913.0
aF914.0
aF910.0
aF913.0
aF911.0
aF920.0
aF927.0
aF917.0
aF911.0
aF894.0
asS'workers'
p27
I3
sS'gamma'
p28
F1.0
sS'vcount'
p29
I1000
s.