(dp0
S'niter'
p1
I100
sS'v_ad'
p2
(lp3
I8
aI12
aI12
aI10
aI12
aI9
aI9
aI10
aI7
aI11
aI7
aI9
aI12
aI15
aI8
aI9
aI10
aI13
aI8
aI8
aI12
aI12
aI19
aI12
aI13
aI8
aI13
aI7
aI14
aI10
aI9
aI9
aI10
aI10
aI13
aI10
aI16
aI12
aI12
aI10
aI8
aI15
aI9
aI7
aI10
aI13
aI13
aI6
aI12
aI9
aI5
aI9
aI8
aI14
aI10
aI9
aI8
aI9
aI9
aI8
aI11
aI13
aI14
aI7
aI11
aI12
aI5
aI10
aI7
aI10
aI7
aI9
aI12
aI11
aI11
aI15
aI13
aI8
aI7
aI14
aI10
aI10
aI12
aI14
aI9
aI13
aI13
aI8
aI16
aI8
aI9
aI11
aI7
aI4
aI11
aI10
aI11
aI20
aI10
aI10
asS'trans'
p4
F0.8047941557912676
sS'ecount'
p5
I13033
sS'name'
p6
S'SNAP_GR_1000'
p7
sS't_m'
p8
I53
sS'v_nonad_g'
p9
(lp10
I75
aI172
aI368
aI78
aI910
aI698
aI746
aI641
asS'pedge'
p11
F0.6
sS'r_ad'
p12
(lp13
F953.0
aF947.0
aF950.0
aF953.0
aF954.0
aF953.0
aF955.0
aF960.0
aF949.0
aF939.0
aF961.0
aF957.0
aF944.0
aF947.0
aF956.0
aF957.0
aF957.0
aF947.0
aF957.0
aF955.0
aF952.0
aF956.0
aF940.0
aF947.0
aF950.0
aF956.0
aF952.0
aF958.0
aF955.0
aF951.0
aF950.0
aF953.0
aF946.0
aF952.0
aF956.0
aF942.0
aF949.0
aF954.0
aF946.0
aF955.0
aF952.0
aF947.0
aF952.0
aF952.0
aF950.0
aF953.0
aF939.0
aF964.0
aF949.0
aF952.0
aF959.0
aF955.0
aF955.0
aF948.0
aF954.0
aF954.0
aF955.0
aF952.0
aF942.0
aF958.0
aF954.0
aF956.0
aF948.0
aF957.0
aF950.0
aF954.0
aF948.0
aF949.0
aF955.0
aF949.0
aF953.0
aF955.0
aF943.0
aF956.0
aF955.0
aF945.0
aF951.0
aF957.0
aF956.0
aF943.0
aF949.0
aF947.0
aF948.0
aF951.0
aF948.0
aF946.0
aF953.0
aF948.0
aF944.0
aF961.0
aF955.0
aF955.0
aF960.0
aF967.0
aF958.0
aF954.0
aF954.0
aF934.0
aF947.0
aF955.0
asS'v_nonad_rg'
p14
(lp15
I277
aI225
aI857
aI95
aI666
aI407
aI910
aI852
aI641
asS'nsim_ad'
p16
I1000
sS'git'
p17
S'674f73d'
p18
sS'kratio'
p19
I10
sS'r_nonad_g'
p20
(lp21
F945.0
aF932.0
aF943.0
aF946.0
aF943.0
aF942.0
aF952.0
aF948.0
aF941.0
aF930.0
aF951.0
aF953.0
aF937.0
aF929.0
aF950.0
aF951.0
aF944.0
aF927.0
aF950.0
aF950.0
aF942.0
aF948.0
aF926.0
aF936.0
aF942.0
aF944.0
aF943.0
aF948.0
aF945.0
aF935.0
aF930.0
aF948.0
aF939.0
aF943.0
aF946.0
aF934.0
aF934.0
aF942.0
aF936.0
aF947.0
aF943.0
aF933.0
aF937.0
aF939.0
aF940.0
aF942.0
aF931.0
aF958.0
aF937.0
aF942.0
aF950.0
aF934.0
aF940.0
aF936.0
aF947.0
aF947.0
aF948.0
aF943.0
aF935.0
aF952.0
aF943.0
aF946.0
aF942.0
aF953.0
aF947.0
aF946.0
aF942.0
aF937.0
aF947.0
aF944.0
aF945.0
aF950.0
aF938.0
aF945.0
aF944.0
aF926.0
aF934.0
aF949.0
aF947.0
aF928.0
aF942.0
aF939.0
aF940.0
aF937.0
aF943.0
aF939.0
aF948.0
aF943.0
aF934.0
aF950.0
aF947.0
aF949.0
aF947.0
aF960.0
aF943.0
aF943.0
aF942.0
aF923.0
aF942.0
aF950.0
asS'nsim_nonad'
p22
I10000
sS't_h'
p23
I1
sS't_s'
p24
I36
sS'r_nonad_rg'
p25
(lp26
F944.0
aF936.0
aF942.0
aF946.0
aF942.0
aF942.0
aF951.0
aF948.0
aF940.0
aF929.0
aF952.0
aF952.0
aF936.0
aF927.0
aF949.0
aF949.0
aF943.0
aF925.0
aF952.0
aF950.0
aF942.0
aF947.0
aF925.0
aF935.0
aF941.0
aF946.0
aF942.0
aF947.0
aF945.0
aF936.0
aF929.0
aF947.0
aF938.0
aF944.0
aF946.0
aF936.0
aF935.0
aF941.0
aF936.0
aF946.0
aF943.0
aF934.0
aF936.0
aF939.0
aF939.0
aF941.0
aF929.0
aF956.0
aF937.0
aF942.0
aF949.0
aF934.0
aF938.0
aF936.0
aF948.0
aF947.0
aF946.0
aF943.0
aF934.0
aF950.0
aF943.0
aF945.0
aF942.0
aF954.0
aF945.0
aF946.0
aF941.0
aF937.0
aF946.0
aF942.0
aF945.0
aF949.0
aF936.0
aF944.0
aF943.0
aF926.0
aF932.0
aF948.0
aF946.0
aF928.0
aF941.0
aF938.0
aF940.0
aF937.0
aF942.0
aF938.0
aF946.0
aF943.0
aF933.0
aF949.0
aF947.0
aF948.0
aF947.0
aF958.0
aF944.0
aF942.0
aF940.0
aF922.0
aF940.0
aF949.0
asS'workers'
p27
I3
sS'gamma'
p28
F1.0
sS'vcount'
p29
I1000
s.