(dp0
S'niter'
p1
I100
sS'v_ad'
p2
(lp3
I27
aI40
aI33
aI32
aI39
aI43
aI40
aI37
aI38
aI47
aI32
aI44
aI37
aI27
aI43
aI27
aI29
aI31
aI30
aI37
aI32
aI31
aI37
aI29
aI24
aI36
aI35
aI35
aI33
aI37
aI32
aI33
aI46
aI35
aI36
aI41
aI35
aI36
aI43
aI26
aI34
aI41
aI26
aI39
aI34
aI32
aI35
aI41
aI31
aI32
aI31
aI47
aI40
aI29
aI31
aI51
aI40
aI40
aI26
aI46
aI43
aI36
aI40
aI36
aI37
aI42
aI41
aI34
aI37
aI39
aI42
aI31
aI29
aI34
aI36
aI36
aI37
aI42
aI24
aI36
aI36
aI23
aI35
aI27
aI32
aI41
aI25
aI33
aI42
aI42
aI28
aI49
aI40
aI43
aI36
aI29
aI40
aI32
aI46
aI40
asS'trans'
p4
F0.8047941557912676
sS'ecount'
p5
I13033
sS'name'
p6
S'SNAP_GR_1000'
p7
sS't_m'
p8
I32
sS'v_nonad_g'
p9
(lp10
I136
aI201
aI437
aI78
aI776
aI418
aI641
aI910
aI972
aI639
aI482
aI852
aI523
aI978
aI650
aI651
aI900
aI930
aI490
aI785
aI788
aI673
aI504
aI666
asS'pedge'
p11
F0.4
sS'r_ad'
p12
(lp13
F901.0
aF887.0
aF893.0
aF905.0
aF885.0
aF884.0
aF887.0
aF892.0
aF904.0
aF880.0
aF902.0
aF880.0
aF890.0
aF908.0
aF880.0
aF912.0
aF900.0
aF885.0
aF888.0
aF895.0
aF896.0
aF896.0
aF901.0
aF906.0
aF910.0
aF884.0
aF888.0
aF902.0
aF897.0
aF886.0
aF897.0
aF891.0
aF890.0
aF897.0
aF882.0
aF878.0
aF891.0
aF888.0
aF872.0
aF898.0
aF901.0
aF882.0
aF892.0
aF897.0
aF905.0
aF900.0
aF899.0
aF898.0
aF902.0
aF898.0
aF899.0
aF878.0
aF891.0
aF901.0
aF905.0
aF882.0
aF889.0
aF894.0
aF909.0
aF884.0
aF882.0
aF901.0
aF882.0
aF896.0
aF893.0
aF895.0
aF889.0
aF896.0
aF889.0
aF882.0
aF889.0
aF895.0
aF894.0
aF889.0
aF891.0
aF905.0
aF893.0
aF880.0
aF908.0
aF894.0
aF900.0
aF915.0
aF891.0
aF900.0
aF906.0
aF883.0
aF903.0
aF891.0
aF883.0
aF878.0
aF903.0
aF880.0
aF897.0
aF883.0
aF895.0
aF903.0
aF883.0
aF889.0
aF886.0
aF888.0
asS'v_nonad_rg'
p14
(lp15
I13
aI437
aI872
aI110
aI893
aI658
aI395
aI418
aI190
aI256
aI635
aI581
aI650
aI666
aI673
aI717
aI504
aI852
aI978
aI490
aI785
aI945
aI938
aI715
aI782
asS'nsim_ad'
p16
I1000
sS'git'
p17
S'674f73d'
p18
sS'kratio'
p19
I10
sS'r_nonad_g'
p20
(lp21
F883.0
aF863.0
aF876.0
aF878.0
aF867.0
aF855.0
aF861.0
aF868.0
aF862.0
aF850.0
aF884.0
aF845.0
aF861.0
aF892.0
aF852.0
aF889.0
aF863.0
aF872.0
aF875.0
aF864.0
aF876.0
aF870.0
aF864.0
aF823.0
aF886.0
aF859.0
aF859.0
aF876.0
aF862.0
aF860.0
aF883.0
aF863.0
aF873.0
aF869.0
aF855.0
aF853.0
aF870.0
aF864.0
aF854.0
aF876.0
aF869.0
aF860.0
aF864.0
aF876.0
aF880.0
aF888.0
aF862.0
aF860.0
aF875.0
aF865.0
aF883.0
aF843.0
aF862.0
aF884.0
aF875.0
aF846.0
aF860.0
aF865.0
aF882.0
aF849.0
aF846.0
aF864.0
aF851.0
aF880.0
aF869.0
aF870.0
aF862.0
aF870.0
aF868.0
aF859.0
aF856.0
aF865.0
aF871.0
aF872.0
aF866.0
aF884.0
aF877.0
aF856.0
aF880.0
aF836.0
aF873.0
aF884.0
aF880.0
aF846.0
aF875.0
aF840.0
aF878.0
aF871.0
aF817.0
aF859.0
aF870.0
aF827.0
aF876.0
aF815.0
aF866.0
aF878.0
aF860.0
aF872.0
aF861.0
aF861.0
asS'nsim_nonad'
p22
I10000
sS't_h'
p23
I1
sS't_s'
p24
I12
sS'r_nonad_rg'
p25
(lp26
F884.0
aF862.0
aF875.0
aF880.0
aF869.0
aF849.0
aF870.0
aF867.0
aF863.0
aF848.0
aF877.0
aF843.0
aF856.0
aF892.0
aF854.0
aF887.0
aF860.0
aF872.0
aF875.0
aF859.0
aF875.0
aF869.0
aF865.0
aF815.0
aF885.0
aF863.0
aF858.0
aF873.0
aF862.0
aF857.0
aF879.0
aF859.0
aF869.0
aF865.0
aF854.0
aF851.0
aF870.0
aF864.0
aF857.0
aF875.0
aF871.0
aF855.0
aF861.0
aF872.0
aF885.0
aF886.0
aF861.0
aF860.0
aF874.0
aF880.0
aF884.0
aF843.0
aF868.0
aF883.0
aF874.0
aF844.0
aF862.0
aF863.0
aF880.0
aF847.0
aF842.0
aF861.0
aF853.0
aF877.0
aF865.0
aF874.0
aF856.0
aF866.0
aF869.0
aF857.0
aF857.0
aF866.0
aF870.0
aF871.0
aF864.0
aF885.0
aF873.0
aF854.0
aF878.0
aF837.0
aF869.0
aF884.0
aF876.0
aF847.0
aF873.0
aF839.0
aF880.0
aF869.0
aF818.0
aF858.0
aF874.0
aF827.0
aF875.0
aF815.0
aF864.0
aF887.0
aF863.0
aF863.0
aF861.0
aF860.0
asS'workers'
p27
I3
sS'gamma'
p28
F1.0
sS'vcount'
p29
I1000
s.