(dp0
S'niter'
p1
I100
sS'v_ad'
p2
(lp3
I100
aI100
aI100
aI100
aI100
aI100
aI100
aI100
aI100
aI100
aI100
aI100
aI100
aI100
aI100
aI100
aI100
aI100
aI100
aI100
aI100
aI100
aI100
aI100
aI100
aI100
aI100
aI100
aI100
aI100
aI100
aI100
aI100
aI100
aI100
aI100
aI100
aI100
aI100
aI100
aI100
aI100
aI100
aI100
aI100
aI100
aI100
aI100
aI100
aI100
aI100
aI100
aI100
aI100
aI100
aI100
aI100
aI100
aI100
aI100
aI100
aI100
aI100
aI100
aI100
aI100
aI100
aI100
aI100
aI100
aI100
aI100
aI100
aI100
aI100
aI100
aI100
aI100
aI100
aI100
aI100
aI100
aI100
aI100
aI100
aI100
aI100
aI100
aI100
aI100
aI100
aI100
aI100
aI100
aI100
aI100
aI100
aI100
aI100
aI100
asS'trans'
p4
F0.8047941557912676
sS'ecount'
p5
I13033
sS'name'
p6
S'SNAP_GR_1000'
p7
sS't_m'
p8
I4
sS'v_nonad_g'
p9
(lp10
I0
aI3
aI8
aI5
aI12
aI4
aI2
aI23
aI6
aI79
aI49
aI1
aI51
aI104
aI10
aI75
aI65
aI110
aI9
aI67
aI93
aI74
aI127
aI7
aI66
aI98
aI172
aI136
aI11
aI62
aI145
aI152
aI106
aI149
aI219
aI40
aI53
aI151
aI115
aI129
aI13
aI82
aI184
aI103
aI54
aI177
aI81
aI185
aI21
aI120
aI202
aI138
aI167
aI41
aI305
aI57
aI368
aI174
aI333
aI239
aI144
aI119
aI163
aI130
aI259
aI183
aI224
aI15
aI189
aI257
aI143
aI153
aI306
aI424
aI55
aI319
aI168
aI299
aI431
aI253
aI88
aI474
aI171
aI418
aI266
aI173
aI140
aI220
aI17
aI213
aI384
aI285
aI162
aI243
aI413
aI434
aI349
aI242
aI58
aI229
asS'pedge'
p11
F0.01
sS'r_ad'
p12
(lp13
F35.0
aF39.0
aF19.0
aF28.0
aF39.0
aF43.0
aF30.0
aF52.0
aF33.0
aF39.0
aF29.0
aF44.0
aF25.0
aF27.0
aF36.0
aF37.0
aF46.0
aF31.0
aF26.0
aF28.0
aF29.0
aF40.0
aF39.0
aF32.0
aF30.0
aF32.0
aF35.0
aF31.0
aF33.0
aF31.0
aF21.0
aF26.0
aF30.0
aF18.0
aF29.0
aF31.0
aF29.0
aF32.0
aF32.0
aF34.0
aF40.0
aF31.0
aF27.0
aF33.0
aF37.0
aF34.0
aF30.0
aF49.0
aF27.0
aF37.0
aF34.0
aF34.0
aF23.0
aF27.0
aF26.0
aF28.0
aF30.0
aF25.0
aF29.0
aF35.0
aF26.0
aF37.0
aF28.0
aF34.0
aF33.0
aF36.0
aF30.0
aF24.0
aF30.0
aF33.0
aF31.0
aF34.0
aF37.0
aF41.0
aF29.0
aF26.0
aF35.0
aF39.0
aF30.0
aF25.0
aF19.0
aF24.0
aF30.0
aF39.0
aF28.0
aF32.0
aF22.0
aF32.0
aF24.0
aF41.0
aF29.0
aF33.0
aF36.0
aF32.0
aF24.0
aF43.0
aF36.0
aF38.0
aF31.0
aF39.0
asS'v_nonad_rg'
p14
(lp15
I17
aI24
aI109
aI62
aI113
aI32
aI55
aI36
aI7
aI53
aI3
aI58
aI29
aI14
aI78
aI26
aI87
aI10
aI72
aI108
aI102
aI136
aI20
aI204
aI94
aI134
aI0
aI219
aI198
aI266
aI68
aI103
aI237
aI54
aI8
aI141
aI116
aI173
aI260
aI206
aI52
aI48
aI196
aI2
aI117
aI328
aI145
aI138
aI147
aI199
aI174
aI152
aI257
aI177
aI150
aI79
aI149
aI76
aI175
aI67
aI253
aI397
aI75
aI1
aI6
aI184
aI363
aI436
aI104
aI82
aI434
aI193
aI168
aI517
aI442
aI162
aI264
aI59
aI215
aI349
aI40
aI231
aI171
aI389
aI95
aI246
aI368
aI299
aI144
aI242
aI418
aI151
aI315
aI450
aI9
aI129
aI225
aI272
aI128
aI285
asS'nsim_ad'
p16
I1000
sS'git'
p17
S'674f73d'
p18
sS'kratio'
p19
I10
sS'r_nonad_g'
p20
(lp21
F22.0
aF25.0
aF31.0
aF30.0
aF35.0
aF26.0
aF21.0
aF43.0
aF27.0
aF30.0
aF29.0
aF20.0
aF24.0
aF29.0
aF21.0
aF20.0
aF44.0
aF29.0
aF27.0
aF37.0
aF28.0
aF30.0
aF32.0
aF23.0
aF17.0
aF29.0
aF31.0
aF33.0
aF28.0
aF31.0
aF18.0
aF23.0
aF31.0
aF27.0
aF29.0
aF35.0
aF21.0
aF32.0
aF21.0
aF33.0
aF32.0
aF24.0
aF21.0
aF25.0
aF23.0
aF24.0
aF30.0
aF32.0
aF20.0
aF32.0
aF20.0
aF27.0
aF24.0
aF20.0
aF25.0
aF31.0
aF28.0
aF22.0
aF17.0
aF21.0
aF25.0
aF24.0
aF26.0
aF22.0
aF28.0
aF26.0
aF36.0
aF19.0
aF28.0
aF31.0
aF26.0
aF25.0
aF33.0
aF27.0
aF18.0
aF18.0
aF38.0
aF26.0
aF32.0
aF27.0
aF24.0
aF16.0
aF28.0
aF28.0
aF24.0
aF29.0
aF20.0
aF38.0
aF14.0
aF27.0
aF24.0
aF24.0
aF31.0
aF21.0
aF14.0
aF33.0
aF25.0
aF23.0
aF23.0
aF30.0
asS'nsim_nonad'
p22
I10000
sS't_h'
p23
I9
sS't_s'
p24
I33
sS'r_nonad_rg'
p25
(lp26
F27.0
aF26.0
aF20.0
aF29.0
aF22.0
aF18.0
aF24.0
aF43.0
aF24.0
aF34.0
aF24.0
aF27.0
aF23.0
aF19.0
aF21.0
aF30.0
aF42.0
aF26.0
aF25.0
aF36.0
aF32.0
aF27.0
aF24.0
aF30.0
aF12.0
aF31.0
aF24.0
aF22.0
aF21.0
aF32.0
aF29.0
aF16.0
aF20.0
aF21.0
aF33.0
aF37.0
aF21.0
aF31.0
aF21.0
aF26.0
aF26.0
aF29.0
aF25.0
aF27.0
aF25.0
aF23.0
aF25.0
aF28.0
aF17.0
aF25.0
aF30.0
aF36.0
aF24.0
aF20.0
aF25.0
aF35.0
aF28.0
aF18.0
aF17.0
aF26.0
aF25.0
aF17.0
aF34.0
aF22.0
aF26.0
aF25.0
aF28.0
aF25.0
aF32.0
aF29.0
aF14.0
aF27.0
aF32.0
aF33.0
aF29.0
aF21.0
aF31.0
aF32.0
aF30.0
aF34.0
aF21.0
aF18.0
aF20.0
aF27.0
aF19.0
aF33.0
aF24.0
aF42.0
aF12.0
aF31.0
aF20.0
aF28.0
aF26.0
aF24.0
aF17.0
aF30.0
aF16.0
aF19.0
aF24.0
aF36.0
asS'workers'
p27
I3
sS'gamma'
p28
F1.0
sS'vcount'
p29
I1000
s.