(dp0
S'niter'
p1
I100
sS'v_ad'
p2
(lp3
I100
aI100
aI100
aI100
aI100
aI100
aI100
aI100
aI100
aI100
aI100
aI100
aI100
aI100
aI100
aI100
aI100
aI100
aI100
aI100
aI100
aI100
aI100
aI100
aI100
aI100
aI100
aI100
aI100
aI100
aI100
aI100
aI100
aI100
aI100
aI100
aI100
aI100
aI100
aI100
aI100
aI100
aI100
aI100
aI100
aI100
aI100
aI100
aI100
aI100
aI100
aI100
aI100
aI100
aI100
aI100
aI100
aI100
aI100
aI100
aI100
aI100
aI100
aI100
aI100
aI100
aI100
aI100
aI100
aI100
aI100
aI100
aI100
aI100
aI100
aI100
aI100
aI100
aI100
aI100
aI100
aI100
aI100
aI100
aI100
aI100
aI100
aI100
aI100
aI100
aI100
aI100
aI100
aI100
aI100
aI100
aI100
aI100
aI100
aI100
asS'trans'
p4
F0.8047941557912676
sS'ecount'
p5
I13033
sS'name'
p6
S'SNAP_GR_1000'
p7
sS't_m'
p8
I41
sS'v_nonad_g'
p9
(lp10
I8
aI62
aI115
aI127
aI75
aI216
aI74
aI136
aI368
aI177
aI40
aI305
aI145
aI211
aI239
aI130
aI82
aI174
aI41
aI129
aI144
aI335
aI120
aI299
aI153
aI143
aI376
aI95
aI402
aI389
aI306
aI168
aI257
aI103
aI253
aI380
aI464
aI658
aI171
aI179
aI340
aI243
aI162
aI418
aI163
aI229
aI242
aI603
aI221
aI140
aI187
aI285
aI289
aI248
aI497
aI708
aI413
aI550
aI319
aI801
aI403
aI372
aI128
aI428
aI365
aI559
aI479
aI760
aI339
aI422
aI499
aI391
aI275
aI657
aI420
aI146
aI808
aI283
aI154
aI131
aI151
aI563
aI297
aI337
aI293
aI475
aI518
aI260
aI469
aI313
aI182
aI209
aI511
aI505
aI665
aI254
aI844
aI309
aI640
aI628
asS'pedge'
p11
F0.075
sS'r_ad'
p12
(lp13
F329.0
aF321.0
aF303.0
aF329.0
aF315.0
aF320.0
aF334.0
aF310.0
aF368.0
aF373.0
aF332.0
aF311.0
aF332.0
aF325.0
aF305.0
aF351.0
aF332.0
aF348.0
aF327.0
aF350.0
aF340.0
aF329.0
aF324.0
aF335.0
aF356.0
aF346.0
aF314.0
aF340.0
aF339.0
aF371.0
aF313.0
aF352.0
aF326.0
aF354.0
aF351.0
aF363.0
aF327.0
aF334.0
aF315.0
aF353.0
aF352.0
aF338.0
aF338.0
aF318.0
aF351.0
aF345.0
aF298.0
aF306.0
aF327.0
aF310.0
aF342.0
aF324.0
aF295.0
aF356.0
aF324.0
aF362.0
aF327.0
aF368.0
aF319.0
aF332.0
aF361.0
aF315.0
aF363.0
aF328.0
aF346.0
aF332.0
aF312.0
aF332.0
aF331.0
aF330.0
aF312.0
aF386.0
aF330.0
aF320.0
aF339.0
aF335.0
aF350.0
aF319.0
aF342.0
aF338.0
aF353.0
aF327.0
aF322.0
aF349.0
aF322.0
aF347.0
aF351.0
aF336.0
aF333.0
aF310.0
aF358.0
aF350.0
aF356.0
aF299.0
aF355.0
aF348.0
aF335.0
aF336.0
aF334.0
aF333.0
asS'v_nonad_rg'
p14
(lp15
I34
aI87
aI266
aI195
aI434
aI96
aI362
aI183
aI222
aI436
aI316
aI172
aI249
aI496
aI61
aI279
aI78
aI136
aI200
aI311
aI305
aI469
aI404
aI187
aI331
aI302
aI40
aI475
aI329
aI254
aI120
aI867
aI562
aI252
aI144
aI300
aI74
aI636
aI382
aI536
aI409
aI159
aI755
aI182
aI312
aI209
aI130
aI446
aI809
aI441
aI750
aI350
aI857
aI171
aI702
aI375
aI415
aI986
aI160
aI548
aI340
aI157
aI306
aI174
aI229
aI736
aI443
aI527
aI884
aI170
aI262
aI952
aI563
aI603
aI369
aI432
aI176
aI179
aI526
aI813
aI153
aI479
aI682
aI473
aI453
aI793
aI337
aI413
aI131
aI582
aI128
aI347
aI962
aI649
aI297
aI283
aI257
aI214
aI239
aI896
asS'nsim_ad'
p16
I1000
sS'git'
p17
S'25db2e2'
p18
sS'kratio'
p19
I10
sS'r_nonad_g'
p20
(lp21
F307.0
aF310.0
aF279.0
aF293.0
aF280.0
aF299.0
aF294.0
aF304.0
aF312.0
aF338.0
aF302.0
aF298.0
aF314.0
aF302.0
aF270.0
aF328.0
aF314.0
aF330.0
aF289.0
aF298.0
aF297.0
aF307.0
aF300.0
aF303.0
aF276.0
aF320.0
aF288.0
aF318.0
aF309.0
aF332.0
aF307.0
aF322.0
aF298.0
aF297.0
aF318.0
aF322.0
aF294.0
aF322.0
aF259.0
aF312.0
aF313.0
aF305.0
aF306.0
aF277.0
aF334.0
aF321.0
aF292.0
aF304.0
aF293.0
aF291.0
aF322.0
aF303.0
aF256.0
aF316.0
aF277.0
aF320.0
aF284.0
aF318.0
aF309.0
aF284.0
aF264.0
aF300.0
aF332.0
aF295.0
aF306.0
aF300.0
aF288.0
aF310.0
aF297.0
aF261.0
aF316.0
aF334.0
aF305.0
aF323.0
aF308.0
aF311.0
aF311.0
aF267.0
aF287.0
aF305.0
aF332.0
aF309.0
aF249.0
aF309.0
aF271.0
aF309.0
aF330.0
aF296.0
aF321.0
aF291.0
aF330.0
aF316.0
aF311.0
aF277.0
aF322.0
aF313.0
aF333.0
aF303.0
aF287.0
aF311.0
asS'nsim_nonad'
p22
I10000
sS't_h'
p23
I2
sS't_s'
p24
I37
sS'r_nonad_rg'
p25
(lp26
F307.0
aF280.0
aF267.0
aF284.0
aF272.0
aF283.0
aF298.0
aF285.0
aF320.0
aF325.0
aF288.0
aF298.0
aF293.0
aF314.0
aF267.0
aF308.0
aF303.0
aF302.0
aF295.0
aF285.0
aF304.0
aF304.0
aF302.0
aF289.0
aF312.0
aF283.0
aF269.0
aF314.0
aF283.0
aF314.0
aF286.0
aF303.0
aF293.0
aF277.0
aF318.0
aF320.0
aF284.0
aF310.0
aF285.0
aF299.0
aF300.0
aF302.0
aF281.0
aF274.0
aF315.0
aF296.0
aF265.0
aF295.0
aF304.0
aF246.0
aF305.0
aF303.0
aF250.0
aF305.0
aF271.0
aF300.0
aF266.0
aF309.0
aF305.0
aF302.0
aF311.0
aF290.0
aF334.0
aF302.0
aF295.0
aF264.0
aF266.0
aF304.0
aF304.0
aF302.0
aF304.0
aF335.0
aF294.0
aF304.0
aF291.0
aF298.0
aF323.0
aF273.0
aF302.0
aF290.0
aF323.0
aF304.0
aF277.0
aF282.0
aF276.0
aF319.0
aF313.0
aF305.0
aF324.0
aF292.0
aF334.0
aF326.0
aF318.0
aF262.0
aF339.0
aF313.0
aF327.0
aF313.0
aF285.0
aF295.0
asS'workers'
p27
I4
sS'gamma'
p28
F1.0
sS'vcount'
p29
I1000
s.