(dp0
S'niter'
p1
I100
sS'v_ad'
p2
(lp3
I90
aI91
aI80
aI62
aI69
aI91
aI72
aI72
aI67
aI70
aI83
aI82
aI77
aI51
aI77
aI68
aI97
aI82
aI72
aI70
aI65
aI80
aI76
aI78
aI64
aI90
aI81
aI58
aI89
aI74
aI72
aI73
aI80
aI68
aI66
aI82
aI76
aI75
aI58
aI74
aI83
aI72
aI84
aI49
aI83
aI70
aI78
aI68
aI67
aI70
aI72
aI100
aI70
aI83
aI74
aI74
aI57
aI83
aI60
aI79
aI60
aI84
aI74
aI84
aI68
aI62
aI65
aI76
aI72
aI79
aI69
aI62
aI72
aI60
aI67
aI71
aI73
aI94
aI65
aI88
aI64
aI69
aI72
aI68
aI82
aI65
aI75
aI74
aI79
aI61
aI80
aI65
aI69
aI87
aI80
aI62
aI76
aI74
aI72
aI89
asS'trans'
p4
F0.8047941557912676
sS'ecount'
p5
I13033
sS'name'
p6
S'SNAP_GR_1000'
p7
sS't_m'
p8
I21
sS'v_nonad_g'
p9
(lp10
I48
aI172
aI79
aI424
aI391
aI469
aI783
aI393
aI462
aI544
aI641
aI146
aI284
aI518
aI846
aI864
aI256
aI657
aI419
aI845
aI948
aI851
aI547
aI933
aI844
aI929
aI852
aI504
aI581
aI695
aI715
aI930
aI727
aI900
aI939
aI673
aI484
aI788
aI945
aI756
aI785
aI649
aI631
aI500
asS'pedge'
p11
F0.3
sS'r_ad'
p12
(lp13
F816.0
aF811.0
aF821.0
aF839.0
aF839.0
aF812.0
aF817.0
aF833.0
aF836.0
aF834.0
aF825.0
aF817.0
aF837.0
aF854.0
aF826.0
aF832.0
aF809.0
aF812.0
aF844.0
aF839.0
aF834.0
aF820.0
aF837.0
aF818.0
aF835.0
aF816.0
aF830.0
aF849.0
aF817.0
aF822.0
aF837.0
aF824.0
aF825.0
aF837.0
aF839.0
aF840.0
aF831.0
aF831.0
aF847.0
aF828.0
aF828.0
aF825.0
aF819.0
aF858.0
aF820.0
aF839.0
aF828.0
aF838.0
aF841.0
aF835.0
aF837.0
aF789.0
aF838.0
aF830.0
aF833.0
aF828.0
aF841.0
aF811.0
aF842.0
aF823.0
aF847.0
aF813.0
aF840.0
aF832.0
aF829.0
aF844.0
aF838.0
aF824.0
aF829.0
aF831.0
aF833.0
aF846.0
aF829.0
aF850.0
aF836.0
aF825.0
aF824.0
aF816.0
aF842.0
aF809.0
aF848.0
aF831.0
aF836.0
aF824.0
aF816.0
aF836.0
aF819.0
aF832.0
aF828.0
aF848.0
aF832.0
aF838.0
aF835.0
aF808.0
aF815.0
aF855.0
aF829.0
aF835.0
aF822.0
aF813.0
asS'v_nonad_rg'
p14
(lp15
I16
aI79
aI193
aI904
aI678
aI407
aI481
aI857
aI204
aI641
aI389
aI782
aI666
aI316
aI727
aI939
aI977
aI970
aI978
aI288
aI713
aI657
aI508
aI435
aI667
aI716
aI650
aI900
aI852
aI594
aI901
aI673
aI756
aI945
aI837
aI717
aI553
aI484
aI933
aI949
aI630
aI490
aI631
aI845
aI695
aI893
aI704
aI558
aI785
aI715
aI959
asS'nsim_ad'
p16
I1000
sS'git'
p17
S'674f73d'
p18
sS'kratio'
p19
I10
sS'r_nonad_g'
p20
(lp21
F774.0
aF763.0
aF791.0
aF797.0
aF807.0
aF779.0
aF778.0
aF791.0
aF797.0
aF775.0
aF766.0
aF778.0
aF798.0
aF804.0
aF786.0
aF778.0
aF749.0
aF773.0
aF783.0
aF795.0
aF802.0
aF773.0
aF780.0
aF782.0
aF794.0
aF771.0
aF781.0
aF813.0
aF766.0
aF779.0
aF805.0
aF782.0
aF778.0
aF791.0
aF794.0
aF776.0
aF788.0
aF791.0
aF794.0
aF796.0
aF773.0
aF781.0
aF760.0
aF823.0
aF780.0
aF807.0
aF785.0
aF799.0
aF806.0
aF755.0
aF803.0
aF733.0
aF798.0
aF785.0
aF789.0
aF780.0
aF793.0
aF765.0
aF783.0
aF782.0
aF805.0
aF783.0
aF808.0
aF785.0
aF787.0
aF774.0
aF795.0
aF792.0
aF780.0
aF786.0
aF793.0
aF806.0
aF761.0
aF797.0
aF797.0
aF780.0
aF785.0
aF781.0
aF798.0
aF778.0
aF802.0
aF800.0
aF800.0
aF783.0
aF757.0
aF787.0
aF786.0
aF792.0
aF772.0
aF803.0
aF776.0
aF797.0
aF799.0
aF744.0
aF771.0
aF806.0
aF778.0
aF790.0
aF767.0
aF783.0
asS'nsim_nonad'
p22
I10000
sS't_h'
p23
I1
sS't_s'
p24
I40
sS'r_nonad_rg'
p25
(lp26
F768.0
aF768.0
aF782.0
aF801.0
aF806.0
aF768.0
aF780.0
aF782.0
aF798.0
aF782.0
aF752.0
aF778.0
aF802.0
aF801.0
aF778.0
aF780.0
aF753.0
aF774.0
aF781.0
aF788.0
aF793.0
aF770.0
aF782.0
aF775.0
aF786.0
aF777.0
aF793.0
aF814.0
aF769.0
aF781.0
aF800.0
aF768.0
aF784.0
aF786.0
aF795.0
aF770.0
aF793.0
aF777.0
aF792.0
aF795.0
aF768.0
aF785.0
aF765.0
aF819.0
aF779.0
aF812.0
aF771.0
aF795.0
aF802.0
aF759.0
aF799.0
aF739.0
aF795.0
aF774.0
aF794.0
aF781.0
aF786.0
aF769.0
aF785.0
aF783.0
aF802.0
aF777.0
aF803.0
aF791.0
aF780.0
aF778.0
aF788.0
aF789.0
aF780.0
aF782.0
aF787.0
aF799.0
aF782.0
aF805.0
aF801.0
aF780.0
aF797.0
aF768.0
aF784.0
aF758.0
aF797.0
aF796.0
aF790.0
aF780.0
aF758.0
aF793.0
aF784.0
aF789.0
aF768.0
aF805.0
aF777.0
aF804.0
aF787.0
aF743.0
aF765.0
aF787.0
aF783.0
aF784.0
aF776.0
aF772.0
asS'workers'
p27
I3
sS'gamma'
p28
F1.0
sS'vcount'
p29
I1000
s.