(dp0
S'niter'
p1
I100
sS'v_ad'
p2
(lp3
I85
aI62
aI77
aI65
aI82
aI90
aI70
aI76
aI58
aI94
aI77
aI71
aI89
aI86
aI94
aI67
aI81
aI82
aI86
aI71
aI93
aI74
aI64
aI91
aI80
aI82
aI74
aI77
aI78
aI81
aI93
aI82
aI71
aI71
aI88
aI71
aI97
aI100
aI74
aI73
aI58
aI89
aI100
aI80
aI94
aI95
aI84
aI65
aI75
aI88
aI63
aI76
aI83
aI82
aI79
aI77
aI95
aI80
aI74
aI97
aI80
aI78
aI85
aI84
aI60
aI88
aI71
aI83
aI80
aI71
aI82
aI89
aI64
aI72
aI76
aI71
aI92
aI72
aI76
aI54
aI79
aI92
aI83
aI84
aI79
aI84
aI80
aI88
aI88
aI89
aI76
aI79
aI100
aI81
aI77
aI87
aI75
aI91
aI95
aI66
asS'trans'
p4
F0.009741868016951951
sS'ecount'
p5
I3994
sS'name'
p6
S'B_A_1000_2'
p7
sS't_m'
p8
I58
sS'v_nonad_g'
p9
(lp10
I33
aI925
aI754
aI888
asS'pedge'
p11
F0.4
sS'r_ad'
p12
(lp13
F688.0
aF693.0
aF697.0
aF708.0
aF684.0
aF677.0
aF722.0
aF695.0
aF706.0
aF684.0
aF699.0
aF700.0
aF694.0
aF697.0
aF665.0
aF693.0
aF677.0
aF708.0
aF667.0
aF713.0
aF657.0
aF700.0
aF714.0
aF677.0
aF703.0
aF702.0
aF689.0
aF700.0
aF687.0
aF685.0
aF661.0
aF669.0
aF725.0
aF692.0
aF687.0
aF706.0
aF679.0
aF677.0
aF695.0
aF695.0
aF696.0
aF672.0
aF652.0
aF700.0
aF694.0
aF667.0
aF687.0
aF732.0
aF701.0
aF694.0
aF723.0
aF713.0
aF675.0
aF699.0
aF695.0
aF695.0
aF680.0
aF695.0
aF684.0
aF665.0
aF693.0
aF695.0
aF695.0
aF696.0
aF717.0
aF690.0
aF711.0
aF696.0
aF671.0
aF705.0
aF659.0
aF693.0
aF705.0
aF699.0
aF699.0
aF713.0
aF677.0
aF713.0
aF693.0
aF732.0
aF703.0
aF681.0
aF694.0
aF704.0
aF689.0
aF687.0
aF687.0
aF686.0
aF695.0
aF696.0
aF690.0
aF683.0
aF664.0
aF685.0
aF720.0
aF679.0
aF693.0
aF682.0
aF682.0
aF717.0
asS'v_nonad_rg'
p14
(lp15
I65
aI120
aI9
aI685
aI754
asS'nsim_ad'
p16
I1000
sS'git'
p17
S'6993752'
p18
sS'kratio'
p19
I10
sS'r_nonad_g'
p20
(lp21
F630.0
aF649.0
aF645.0
aF659.0
aF627.0
aF616.0
aF671.0
aF645.0
aF665.0
aF626.0
aF627.0
aF647.0
aF636.0
aF647.0
aF589.0
aF649.0
aF634.0
aF637.0
aF618.0
aF646.0
aF602.0
aF651.0
aF671.0
aF615.0
aF665.0
aF640.0
aF635.0
aF642.0
aF637.0
aF611.0
aF601.0
aF599.0
aF689.0
aF648.0
aF622.0
aF646.0
aF609.0
aF605.0
aF644.0
aF645.0
aF652.0
aF623.0
aF599.0
aF644.0
aF606.0
aF614.0
aF619.0
aF692.0
aF645.0
aF648.0
aF678.0
aF657.0
aF612.0
aF644.0
aF627.0
aF639.0
aF624.0
aF641.0
aF632.0
aF603.0
aF617.0
aF640.0
aF637.0
aF650.0
aF667.0
aF628.0
aF666.0
aF654.0
aF614.0
aF652.0
aF587.0
aF619.0
aF661.0
aF641.0
aF650.0
aF656.0
aF611.0
aF659.0
aF639.0
aF704.0
aF656.0
aF631.0
aF628.0
aF642.0
aF625.0
aF639.0
aF641.0
aF631.0
aF632.0
aF612.0
aF624.0
aF607.0
aF596.0
aF635.0
aF670.0
aF616.0
aF640.0
aF616.0
aF602.0
aF680.0
asS'nsim_nonad'
p22
I10000
sS't_h'
p23
I0
sS't_s'
p24
I33
sS'r_nonad_rg'
p25
(lp26
F630.0
aF647.0
aF642.0
aF656.0
aF623.0
aF621.0
aF667.0
aF645.0
aF663.0
aF626.0
aF621.0
aF645.0
aF639.0
aF642.0
aF585.0
aF652.0
aF633.0
aF643.0
aF619.0
aF644.0
aF600.0
aF652.0
aF668.0
aF612.0
aF664.0
aF640.0
aF633.0
aF639.0
aF635.0
aF613.0
aF599.0
aF596.0
aF687.0
aF645.0
aF622.0
aF645.0
aF608.0
aF604.0
aF641.0
aF650.0
aF650.0
aF624.0
aF596.0
aF644.0
aF608.0
aF613.0
aF626.0
aF688.0
aF642.0
aF647.0
aF676.0
aF653.0
aF612.0
aF636.0
aF627.0
aF638.0
aF624.0
aF640.0
aF629.0
aF600.0
aF615.0
aF638.0
aF638.0
aF647.0
aF664.0
aF626.0
aF664.0
aF652.0
aF613.0
aF650.0
aF587.0
aF623.0
aF657.0
aF643.0
aF648.0
aF654.0
aF611.0
aF657.0
aF642.0
aF702.0
aF653.0
aF629.0
aF627.0
aF638.0
aF622.0
aF639.0
aF638.0
aF622.0
aF630.0
aF611.0
aF622.0
aF606.0
aF593.0
aF632.0
aF668.0
aF611.0
aF638.0
aF616.0
aF602.0
aF680.0
asS'workers'
p27
I4
sS'gamma'
p28
F1.0
sS'vcount'
p29
I1000
s.