(dp0
S'niter'
p1
I100
sS'v_ad'
p2
(lp3
I37
aI31
aI49
aI51
aI45
aI47
aI30
aI37
aI45
aI43
aI45
aI34
aI40
aI38
aI45
aI38
aI45
aI49
aI32
aI23
aI44
aI35
aI55
aI31
aI28
aI45
aI45
aI41
aI32
aI37
aI25
aI44
aI38
aI23
aI50
aI40
aI38
aI35
aI34
aI42
aI48
aI30
aI44
aI39
aI39
aI35
aI33
aI46
aI44
aI36
aI44
aI32
aI34
aI38
aI34
aI42
aI31
aI36
aI41
aI21
aI41
aI44
aI46
aI49
aI42
aI36
aI51
aI42
aI45
aI47
aI41
aI39
aI38
aI32
aI44
aI35
aI41
aI36
aI42
aI32
aI40
aI26
aI35
aI43
aI53
aI42
aI37
aI24
aI53
aI37
aI33
aI40
aI40
aI39
aI33
aI33
aI40
aI34
aI41
aI31
asS'trans'
p4
F0.009741868016951951
sS'ecount'
p5
I3994
sS'name'
p6
S'B_A_1000_2'
p7
sS't_m'
p8
I58
sS'v_nonad_g'
p9
(lp10
I3
asS'pedge'
p11
F0.5
sS'r_ad'
p12
(lp13
F814.0
aF820.0
aF782.0
aF782.0
aF790.0
aF809.0
aF807.0
aF802.0
aF797.0
aF804.0
aF781.0
aF797.0
aF804.0
aF799.0
aF790.0
aF806.0
aF786.0
aF787.0
aF791.0
aF820.0
aF809.0
aF808.0
aF779.0
aF818.0
aF788.0
aF814.0
aF777.0
aF791.0
aF823.0
aF814.0
aF838.0
aF810.0
aF799.0
aF816.0
aF781.0
aF816.0
aF796.0
aF797.0
aF809.0
aF796.0
aF803.0
aF796.0
aF787.0
aF792.0
aF808.0
aF798.0
aF813.0
aF799.0
aF787.0
aF800.0
aF787.0
aF827.0
aF810.0
aF799.0
aF783.0
aF793.0
aF817.0
aF795.0
aF810.0
aF822.0
aF804.0
aF807.0
aF788.0
aF786.0
aF795.0
aF799.0
aF793.0
aF808.0
aF792.0
aF794.0
aF794.0
aF802.0
aF803.0
aF797.0
aF786.0
aF813.0
aF765.0
aF785.0
aF800.0
aF824.0
aF791.0
aF817.0
aF800.0
aF815.0
aF796.0
aF793.0
aF802.0
aF810.0
aF776.0
aF808.0
aF798.0
aF785.0
aF802.0
aF808.0
aF799.0
aF808.0
aF797.0
aF813.0
aF792.0
aF802.0
asS'v_nonad_rg'
p14
(lp15
I47
aI146
aI258
asS'nsim_ad'
p16
I1000
sS'git'
p17
S'6993752'
p18
sS'kratio'
p19
I10
sS'r_nonad_g'
p20
(lp21
F782.0
aF794.0
aF754.0
aF742.0
aF754.0
aF767.0
aF787.0
aF771.0
aF767.0
aF768.0
aF750.0
aF772.0
aF779.0
aF770.0
aF757.0
aF781.0
aF758.0
aF763.0
aF776.0
aF810.0
aF775.0
aF770.0
aF740.0
aF797.0
aF773.0
aF775.0
aF746.0
aF762.0
aF795.0
aF786.0
aF819.0
aF777.0
aF769.0
aF794.0
aF739.0
aF784.0
aF760.0
aF767.0
aF773.0
aF766.0
aF759.0
aF774.0
aF758.0
aF771.0
aF773.0
aF784.0
aF787.0
aF760.0
aF764.0
aF766.0
aF754.0
aF802.0
aF788.0
aF774.0
aF759.0
aF759.0
aF782.0
aF777.0
aF780.0
aF801.0
aF774.0
aF768.0
aF754.0
aF746.0
aF768.0
aF768.0
aF752.0
aF766.0
aF760.0
aF761.0
aF770.0
aF773.0
aF776.0
aF765.0
aF757.0
aF791.0
aF734.0
aF759.0
aF768.0
aF808.0
aF756.0
aF794.0
aF765.0
aF780.0
aF763.0
aF761.0
aF776.0
aF796.0
aF742.0
aF780.0
aF767.0
aF759.0
aF778.0
aF782.0
aF780.0
aF785.0
aF776.0
aF790.0
aF770.0
aF778.0
asS'nsim_nonad'
p22
I10000
sS't_h'
p23
I0
sS't_s'
p24
I55
sS'r_nonad_rg'
p25
(lp26
F780.0
aF796.0
aF752.0
aF740.0
aF752.0
aF765.0
aF788.0
aF769.0
aF765.0
aF766.0
aF750.0
aF770.0
aF777.0
aF768.0
aF757.0
aF779.0
aF756.0
aF761.0
aF774.0
aF811.0
aF774.0
aF769.0
aF738.0
aF795.0
aF773.0
aF773.0
aF745.0
aF760.0
aF793.0
aF792.0
aF817.0
aF775.0
aF767.0
aF792.0
aF737.0
aF782.0
aF758.0
aF765.0
aF771.0
aF764.0
aF757.0
aF772.0
aF756.0
aF769.0
aF771.0
aF782.0
aF785.0
aF758.0
aF762.0
aF764.0
aF752.0
aF806.0
aF790.0
aF772.0
aF757.0
aF757.0
aF780.0
aF775.0
aF778.0
aF799.0
aF772.0
aF769.0
aF752.0
aF746.0
aF766.0
aF766.0
aF752.0
aF764.0
aF760.0
aF759.0
aF768.0
aF771.0
aF774.0
aF765.0
aF755.0
aF789.0
aF732.0
aF757.0
aF766.0
aF806.0
aF754.0
aF792.0
aF763.0
aF778.0
aF761.0
aF759.0
aF774.0
aF794.0
aF740.0
aF778.0
aF765.0
aF757.0
aF779.0
aF780.0
aF778.0
aF783.0
aF777.0
aF788.0
aF768.0
aF776.0
asS'workers'
p27
I4
sS'gamma'
p28
F1.0
sS'vcount'
p29
I1000
s.