(dp0
S'niter'
p1
I100
sS'v_ad'
p2
(lp3
I47
aI48
aI46
aI42
aI43
aI39
aI39
aI51
aI49
aI48
aI48
aI38
aI36
aI44
aI37
aI48
aI39
aI38
aI45
aI46
aI44
aI33
aI50
aI38
aI47
aI48
aI44
aI46
aI41
aI43
aI46
aI35
aI36
aI46
aI41
aI40
aI49
aI43
aI39
aI53
aI43
aI45
aI40
aI43
aI38
aI47
aI41
aI50
aI39
aI48
aI48
aI43
aI38
aI57
aI31
aI43
aI51
aI45
aI41
aI45
aI43
aI41
aI49
aI41
aI41
aI38
aI37
aI42
aI47
aI37
aI48
aI49
aI39
aI38
aI38
aI43
aI46
aI52
aI51
aI42
aI49
aI40
aI52
aI37
aI48
aI35
aI44
aI53
aI37
aI44
aI37
aI43
aI46
aI43
aI34
aI43
aI36
aI50
aI30
aI43
asS'trans'
p4
F0.6892001655525245
sS'ecount'
p5
I45990
sS'name'
p6
S'SNAP_FB_1000'
p7
sS't_m'
p8
I19
sS'v_nonad_g'
p9
(lp10
I145
aI431
aI293
aI644
aI396
aI342
aI978
aI768
aI682
aI7
aI579
aI935
aI689
aI760
aI916
aI787
aI208
aI841
aI633
aI902
asS'pedge'
p11
F0.3
sS'r_ad'
p12
(lp13
F862.0
aF861.0
aF867.0
aF863.0
aF856.0
aF866.0
aF876.0
aF855.0
aF858.0
aF852.0
aF856.0
aF867.0
aF880.0
aF863.0
aF883.0
aF862.0
aF875.0
aF873.0
aF858.0
aF861.0
aF866.0
aF883.0
aF850.0
aF881.0
aF862.0
aF856.0
aF863.0
aF859.0
aF867.0
aF863.0
aF859.0
aF884.0
aF884.0
aF857.0
aF868.0
aF875.0
aF846.0
aF866.0
aF871.0
aF847.0
aF868.0
aF860.0
aF870.0
aF867.0
aF869.0
aF858.0
aF865.0
aF859.0
aF883.0
aF856.0
aF853.0
aF859.0
aF878.0
aF844.0
aF881.0
aF867.0
aF855.0
aF866.0
aF863.0
aF859.0
aF862.0
aF872.0
aF850.0
aF877.0
aF866.0
aF871.0
aF873.0
aF866.0
aF853.0
aF876.0
aF852.0
aF858.0
aF864.0
aF879.0
aF865.0
aF874.0
aF855.0
aF846.0
aF855.0
aF858.0
aF850.0
aF867.0
aF853.0
aF875.0
aF858.0
aF883.0
aF865.0
aF853.0
aF868.0
aF859.0
aF866.0
aF864.0
aF857.0
aF862.0
aF878.0
aF864.0
aF881.0
aF854.0
aF888.0
aF861.0
asS'v_nonad_rg'
p14
(lp15
I80
aI674
aI916
aI214
aI483
aI340
aI902
aI622
aI967
aI306
aI655
aI924
aI507
aI621
aI497
aI866
aI869
aI76
aI382
aI161
aI267
aI841
aI942
aI776
aI431
aI682
aI979
aI579
aI396
aI987
aI479
aI378
aI886
aI392
aI978
aI293
aI689
aI840
aI342
aI935
aI145
asS'nsim_ad'
p16
I1000
sS'git'
p17
S'6993752'
p18
sS'kratio'
p19
I10
sS'r_nonad_g'
p20
(lp21
F896.0
aF899.0
aF894.0
aF889.0
aF871.0
aF893.0
aF901.0
aF895.0
aF890.0
aF898.0
aF885.0
aF884.0
aF905.0
aF898.0
aF892.0
aF893.0
aF901.0
aF903.0
aF878.0
aF897.0
aF882.0
aF902.0
aF892.0
aF899.0
aF900.0
aF893.0
aF901.0
aF886.0
aF888.0
aF890.0
aF901.0
aF910.0
aF912.0
aF886.0
aF891.0
aF906.0
aF894.0
aF901.0
aF902.0
aF893.0
aF894.0
aF906.0
aF908.0
aF899.0
aF895.0
aF900.0
aF889.0
aF878.0
aF895.0
aF896.0
aF886.0
aF880.0
aF900.0
aF884.0
aF893.0
aF896.0
aF895.0
aF880.0
aF885.0
aF885.0
aF877.0
aF909.0
aF879.0
aF896.0
aF882.0
aF901.0
aF904.0
aF894.0
aF888.0
aF912.0
aF885.0
aF882.0
aF864.0
aF905.0
aF890.0
aF907.0
aF897.0
aF905.0
aF884.0
aF896.0
aF885.0
aF882.0
aF897.0
aF905.0
aF902.0
aF899.0
aF898.0
aF898.0
aF891.0
aF879.0
aF900.0
aF905.0
aF888.0
aF890.0
aF899.0
aF878.0
aF909.0
aF884.0
aF899.0
aF901.0
asS'nsim_nonad'
p22
I10000
sS't_h'
p23
I1
sS't_s'
p24
I49
sS'r_nonad_rg'
p25
(lp26
F870.0
aF872.0
aF863.0
aF865.0
aF847.0
aF873.0
aF869.0
aF858.0
aF865.0
aF863.0
aF861.0
aF862.0
aF863.0
aF868.0
aF863.0
aF866.0
aF868.0
aF867.0
aF848.0
aF860.0
aF857.0
aF870.0
aF860.0
aF866.0
aF867.0
aF856.0
aF869.0
aF846.0
aF865.0
aF858.0
aF867.0
aF873.0
aF874.0
aF852.0
aF866.0
aF856.0
aF861.0
aF861.0
aF864.0
aF857.0
aF869.0
aF868.0
aF868.0
aF866.0
aF860.0
aF871.0
aF865.0
aF856.0
aF861.0
aF862.0
aF856.0
aF852.0
aF873.0
aF854.0
aF866.0
aF873.0
aF868.0
aF851.0
aF865.0
aF853.0
aF854.0
aF871.0
aF851.0
aF869.0
aF851.0
aF868.0
aF867.0
aF863.0
aF866.0
aF868.0
aF852.0
aF861.0
aF857.0
aF868.0
aF862.0
aF878.0
aF867.0
aF872.0
aF858.0
aF863.0
aF862.0
aF871.0
aF861.0
aF868.0
aF860.0
aF867.0
aF869.0
aF869.0
aF866.0
aF858.0
aF872.0
aF876.0
aF853.0
aF861.0
aF866.0
aF867.0
aF871.0
aF855.0
aF868.0
aF867.0
asS'workers'
p27
I3
sS'gamma'
p28
F2.0
sS'vcount'
p29
I1000
s.