(dp0
S'niter'
p1
I100
sS'v_ad'
p2
(lp3
I57
aI56
aI56
aI51
aI49
aI53
aI52
aI46
aI47
aI52
aI57
aI51
aI68
aI38
aI43
aI46
aI51
aI47
aI40
aI63
aI44
aI46
aI50
aI61
aI53
aI64
aI53
aI60
aI64
aI42
aI49
aI53
aI58
aI51
aI59
aI48
aI55
aI56
aI63
aI41
aI53
aI57
aI48
aI49
aI56
aI64
aI55
aI60
aI63
aI58
aI46
aI62
aI52
aI42
aI57
aI45
aI60
aI49
aI47
aI53
aI46
aI51
aI51
aI49
aI44
aI43
aI51
aI60
aI53
aI54
aI51
aI48
aI52
aI51
aI55
aI48
aI52
aI51
aI53
aI48
aI53
aI55
aI54
aI48
aI51
aI52
aI46
aI62
aI57
aI53
aI44
aI59
aI55
aI40
aI53
aI58
aI50
aI46
aI56
aI62
asS'trans'
p4
F0.6892001655525245
sS'ecount'
p5
I45990
sS'name'
p6
S'SNAP_FB_1000'
p7
sS't_m'
p8
I27
sS'v_nonad_g'
p9
(lp10
I145
aI7
aI431
aI396
aI644
aI342
aI682
aI293
aI579
aI978
aI382
aI208
aI768
aI760
aI935
aI916
aI841
aI507
aI689
aI483
aI787
aI633
aI886
aI902
aI267
aI655
aI799
aI214
aI870
asS'pedge'
p11
F0.2
sS'r_ad'
p12
(lp13
F815.0
aF812.0
aF814.0
aF813.0
aF827.0
aF829.0
aF820.0
aF836.0
aF826.0
aF826.0
aF817.0
aF835.0
aF785.0
aF854.0
aF828.0
aF826.0
aF829.0
aF824.0
aF851.0
aF804.0
aF841.0
aF832.0
aF825.0
aF804.0
aF812.0
aF804.0
aF816.0
aF800.0
aF800.0
aF838.0
aF826.0
aF825.0
aF819.0
aF826.0
aF808.0
aF838.0
aF816.0
aF807.0
aF798.0
aF839.0
aF820.0
aF812.0
aF819.0
aF830.0
aF807.0
aF801.0
aF815.0
aF798.0
aF800.0
aF809.0
aF835.0
aF800.0
aF828.0
aF834.0
aF815.0
aF830.0
aF820.0
aF818.0
aF837.0
aF800.0
aF831.0
aF814.0
aF821.0
aF828.0
aF844.0
aF840.0
aF827.0
aF800.0
aF820.0
aF813.0
aF823.0
aF836.0
aF829.0
aF821.0
aF813.0
aF829.0
aF822.0
aF820.0
aF817.0
aF828.0
aF813.0
aF817.0
aF813.0
aF828.0
aF821.0
aF816.0
aF818.0
aF795.0
aF807.0
aF824.0
aF839.0
aF812.0
aF810.0
aF843.0
aF817.0
aF807.0
aF819.0
aF832.0
aF814.0
aF797.0
asS'v_nonad_rg'
p14
(lp15
I342
aI579
aI917
aI902
aI307
aI814
aI127
aI670
aI378
aI788
aI306
aI744
aI356
aI8
aI841
aI507
aI760
aI644
aI366
aI84
aI397
aI967
aI682
aI480
aI431
aI100
aI355
aI834
aI866
aI940
aI753
aI650
aI840
aI633
aI434
aI396
aI799
aI916
aI145
aI768
aI453
aI979
aI776
aI479
aI7
aI382
aI787
aI935
aI978
asS'nsim_ad'
p16
I1000
sS'git'
p17
S'6993752'
p18
sS'kratio'
p19
I10
sS'r_nonad_g'
p20
(lp21
F837.0
aF833.0
aF844.0
aF842.0
aF860.0
aF863.0
aF847.0
aF856.0
aF845.0
aF848.0
aF856.0
aF842.0
aF824.0
aF878.0
aF855.0
aF855.0
aF871.0
aF855.0
aF856.0
aF830.0
aF867.0
aF856.0
aF850.0
aF826.0
aF821.0
aF832.0
aF822.0
aF825.0
aF834.0
aF866.0
aF849.0
aF858.0
aF851.0
aF851.0
aF823.0
aF871.0
aF847.0
aF836.0
aF848.0
aF862.0
aF846.0
aF843.0
aF836.0
aF850.0
aF831.0
aF831.0
aF849.0
aF837.0
aF842.0
aF847.0
aF862.0
aF834.0
aF841.0
aF842.0
aF837.0
aF851.0
aF854.0
aF843.0
aF849.0
aF847.0
aF855.0
aF856.0
aF838.0
aF851.0
aF846.0
aF861.0
aF856.0
aF856.0
aF855.0
aF848.0
aF842.0
aF856.0
aF854.0
aF842.0
aF843.0
aF859.0
aF862.0
aF853.0
aF848.0
aF839.0
aF848.0
aF853.0
aF842.0
aF842.0
aF833.0
aF832.0
aF832.0
aF834.0
aF834.0
aF852.0
aF853.0
aF832.0
aF839.0
aF857.0
aF837.0
aF831.0
aF859.0
aF850.0
aF828.0
aF851.0
asS'nsim_nonad'
p22
I10000
sS't_h'
p23
I1
sS't_s'
p24
I34
sS'r_nonad_rg'
p25
(lp26
F815.0
aF812.0
aF814.0
aF824.0
aF831.0
aF832.0
aF811.0
aF834.0
aF817.0
aF810.0
aF818.0
aF818.0
aF808.0
aF840.0
aF822.0
aF815.0
aF832.0
aF820.0
aF832.0
aF809.0
aF827.0
aF823.0
aF819.0
aF811.0
aF803.0
aF809.0
aF807.0
aF803.0
aF800.0
aF835.0
aF827.0
aF828.0
aF823.0
aF806.0
aF798.0
aF826.0
aF821.0
aF815.0
aF807.0
aF830.0
aF815.0
aF815.0
aF819.0
aF824.0
aF802.0
aF806.0
aF815.0
aF800.0
aF806.0
aF817.0
aF836.0
aF814.0
aF828.0
aF829.0
aF813.0
aF822.0
aF819.0
aF805.0
aF817.0
aF822.0
aF828.0
aF817.0
aF809.0
aF816.0
aF822.0
aF822.0
aF833.0
aF815.0
aF826.0
aF824.0
aF811.0
aF829.0
aF824.0
aF821.0
aF811.0
aF821.0
aF821.0
aF817.0
aF825.0
aF814.0
aF818.0
aF822.0
aF810.0
aF817.0
aF817.0
aF804.0
aF815.0
aF819.0
aF804.0
aF825.0
aF811.0
aF813.0
aF821.0
aF831.0
aF818.0
aF806.0
aF822.0
aF813.0
aF807.0
aF809.0
asS'workers'
p27
I3
sS'gamma'
p28
F2.0
sS'vcount'
p29
I1000
s.