(dp0
S'niter'
p1
I100
sS'v_ad'
p2
(lp3
I34
aI40
aI36
aI32
aI34
aI36
aI27
aI40
aI38
aI33
aI43
aI36
aI33
aI35
aI30
aI32
aI38
aI30
aI30
aI43
aI26
aI36
aI34
aI32
aI29
aI42
aI38
aI35
aI38
aI39
aI42
aI35
aI31
aI32
aI36
aI35
aI34
aI34
aI34
aI36
aI27
aI38
aI40
aI39
aI36
aI37
aI32
aI36
aI35
aI31
aI35
aI30
aI41
aI33
aI42
aI30
aI31
aI27
aI35
aI32
aI36
aI32
aI35
aI42
aI31
aI28
aI37
aI35
aI34
aI30
aI37
aI36
aI44
aI35
aI34
aI44
aI37
aI36
aI32
aI36
aI37
aI38
aI32
aI35
aI35
aI36
aI33
aI31
aI34
aI32
aI33
aI35
aI28
aI32
aI28
aI38
aI32
aI39
aI32
aI33
asS'trans'
p4
F0.6892001655525245
sS'ecount'
p5
I45990
sS'name'
p6
S'SNAP_FB_1000'
p7
sS't_m'
p8
I15
sS'v_nonad_g'
p9
(lp10
I145
aI431
aI293
aI644
aI396
aI342
aI978
aI768
aI689
aI935
aI682
aI870
aI7
aI760
aI916
aI787
asS'pedge'
p11
F0.4
sS'r_ad'
p12
(lp13
F897.0
aF875.0
aF894.0
aF905.0
aF893.0
aF889.0
aF909.0
aF879.0
aF884.0
aF894.0
aF873.0
aF889.0
aF890.0
aF895.0
aF908.0
aF895.0
aF884.0
aF905.0
aF903.0
aF873.0
aF905.0
aF890.0
aF888.0
aF907.0
aF908.0
aF869.0
aF892.0
aF890.0
aF881.0
aF880.0
aF882.0
aF897.0
aF900.0
aF892.0
aF887.0
aF894.0
aF890.0
aF900.0
aF895.0
aF891.0
aF913.0
aF892.0
aF879.0
aF890.0
aF888.0
aF891.0
aF899.0
aF886.0
aF890.0
aF903.0
aF893.0
aF895.0
aF881.0
aF893.0
aF874.0
aF899.0
aF904.0
aF908.0
aF894.0
aF896.0
aF895.0
aF887.0
aF893.0
aF881.0
aF907.0
aF905.0
aF893.0
aF903.0
aF894.0
aF902.0
aF886.0
aF889.0
aF878.0
aF895.0
aF899.0
aF876.0
aF885.0
aF896.0
aF904.0
aF893.0
aF881.0
aF885.0
aF901.0
aF891.0
aF893.0
aF895.0
aF893.0
aF893.0
aF898.0
aF900.0
aF898.0
aF890.0
aF906.0
aF895.0
aF897.0
aF891.0
aF895.0
aF885.0
aF904.0
aF902.0
asS'v_nonad_rg'
p14
(lp15
I517
aI363
aI735
aI479
aI53
aI579
aI994
aI293
aI478
aI926
aI659
aI510
aI127
aI834
aI872
aI450
aI267
aI734
aI483
aI935
aI916
aI887
aI925
aI689
aI431
aI507
aI682
aI425
aI886
aI396
aI392
aI760
aI979
aI145
aI978
aI342
asS'nsim_ad'
p16
I1000
sS'git'
p17
S'6993752'
p18
sS'kratio'
p19
I10
sS'r_nonad_g'
p20
(lp21
F913.0
aF914.0
aF915.0
aF927.0
aF916.0
aF911.0
aF926.0
aF916.0
aF914.0
aF928.0
aF919.0
aF917.0
aF922.0
aF929.0
aF917.0
aF924.0
aF918.0
aF919.0
aF921.0
aF909.0
aF925.0
aF920.0
aF918.0
aF923.0
aF929.0
aF917.0
aF930.0
aF921.0
aF917.0
aF907.0
aF925.0
aF921.0
aF918.0
aF917.0
aF917.0
aF927.0
aF916.0
aF913.0
aF916.0
aF913.0
aF930.0
aF922.0
aF918.0
aF920.0
aF919.0
aF911.0
aF916.0
aF908.0
aF930.0
aF928.0
aF918.0
aF915.0
aF916.0
aF923.0
aF900.0
aF932.0
aF928.0
aF929.0
aF923.0
aF902.0
aF924.0
aF909.0
aF920.0
aF922.0
aF924.0
aF921.0
aF926.0
aF926.0
aF915.0
aF914.0
aF921.0
aF916.0
aF899.0
aF925.0
aF926.0
aF914.0
aF915.0
aF919.0
aF932.0
aF919.0
aF919.0
aF927.0
aF919.0
aF922.0
aF919.0
aF918.0
aF906.0
aF917.0
aF917.0
aF912.0
aF914.0
aF910.0
aF919.0
aF911.0
aF922.0
aF928.0
aF926.0
aF925.0
aF926.0
aF928.0
asS'nsim_nonad'
p22
I10000
sS't_h'
p23
I1
sS't_s'
p24
I28
sS'r_nonad_rg'
p25
(lp26
F894.0
aF883.0
aF890.0
aF892.0
aF890.0
aF879.0
aF900.0
aF870.0
aF884.0
aF897.0
aF888.0
aF884.0
aF894.0
aF891.0
aF885.0
aF887.0
aF879.0
aF898.0
aF888.0
aF885.0
aF891.0
aF890.0
aF887.0
aF897.0
aF897.0
aF874.0
aF891.0
aF888.0
aF887.0
aF886.0
aF880.0
aF892.0
aF889.0
aF882.0
aF879.0
aF890.0
aF882.0
aF896.0
aF898.0
aF892.0
aF899.0
aF888.0
aF888.0
aF900.0
aF883.0
aF884.0
aF890.0
aF880.0
aF890.0
aF888.0
aF891.0
aF891.0
aF890.0
aF886.0
aF882.0
aF898.0
aF897.0
aF891.0
aF886.0
aF876.0
aF896.0
aF884.0
aF883.0
aF880.0
aF892.0
aF894.0
aF884.0
aF903.0
aF890.0
aF887.0
aF891.0
aF878.0
aF883.0
aF890.0
aF891.0
aF887.0
aF881.0
aF885.0
aF891.0
aF884.0
aF881.0
aF883.0
aF889.0
aF879.0
aF886.0
aF886.0
aF874.0
aF883.0
aF880.0
aF889.0
aF881.0
aF884.0
aF887.0
aF885.0
aF894.0
aF897.0
aF892.0
aF884.0
aF891.0
aF895.0
asS'workers'
p27
I3
sS'gamma'
p28
F2.0
sS'vcount'
p29
I1000
s.