(dp0
S'niter'
p1
I100
sS'v_ad'
p2
(lp3
I96
aI89
aI83
aI100
aI95
aI91
aI95
aI95
aI91
aI95
aI92
aI97
aI96
aI95
aI78
aI85
aI87
aI94
aI95
aI85
aI89
aI95
aI96
aI95
aI88
aI91
aI100
aI100
aI93
aI92
aI88
aI96
aI91
aI87
aI94
aI95
aI86
aI89
aI92
aI87
aI94
aI97
aI87
aI86
aI92
aI92
aI90
aI90
aI97
aI95
aI91
aI100
aI100
aI100
aI100
aI85
aI94
aI83
aI88
aI86
aI91
aI81
aI100
aI91
aI84
aI90
aI95
aI92
aI93
aI77
aI94
aI97
aI91
aI100
aI80
aI85
aI92
aI88
aI91
aI98
aI78
aI89
aI93
aI91
aI95
aI93
aI89
aI93
aI87
aI98
aI86
aI100
aI93
aI92
aI86
aI91
aI100
aI95
aI92
aI89
asS'trans'
p4
F0.6892001655525245
sS'ecount'
p5
I45990
sS'name'
p6
S'SNAP_FB_1000'
p7
sS't_m'
p8
I44
sS'v_nonad_g'
p9
(lp10
I76
aI7
aI5
aI84
aI24
aI145
aI53
aI8
aI127
aI66
aI51
aI88
aI43
aI100
aI39
aI67
aI56
aI152
aI162
aI48
aI214
aI35
aI98
aI208
aI23
aI159
aI89
aI342
aI161
aI14
aI80
aI306
aI293
aI9
aI36
aI268
aI77
aI83
aI249
aI206
aI267
aI392
aI335
aI355
aI315
aI290
aI365
aI189
aI483
aI286
aI128
aI307
aI274
aI380
aI163
aI284
aI91
aI52
aI256
aI231
aI193
aI478
asS'pedge'
p11
F0.01
sS'r_ad'
p12
(lp13
F48.0
aF75.0
aF98.0
aF14.0
aF39.0
aF55.0
aF55.0
aF40.0
aF66.0
aF43.0
aF68.0
aF50.0
aF36.0
aF56.0
aF92.0
aF70.0
aF74.0
aF50.0
aF39.0
aF73.0
aF62.0
aF54.0
aF43.0
aF66.0
aF72.0
aF56.0
aF15.0
aF33.0
aF51.0
aF56.0
aF68.0
aF51.0
aF58.0
aF79.0
aF46.0
aF42.0
aF69.0
aF59.0
aF69.0
aF71.0
aF45.0
aF55.0
aF70.0
aF66.0
aF50.0
aF52.0
aF39.0
aF67.0
aF44.0
aF35.0
aF73.0
aF35.0
aF47.0
aF23.0
aF55.0
aF72.0
aF60.0
aF66.0
aF75.0
aF68.0
aF83.0
aF92.0
aF37.0
aF55.0
aF75.0
aF67.0
aF46.0
aF67.0
aF72.0
aF85.0
aF48.0
aF48.0
aF53.0
aF29.0
aF89.0
aF78.0
aF63.0
aF69.0
aF57.0
aF44.0
aF91.0
aF75.0
aF65.0
aF54.0
aF57.0
aF54.0
aF60.0
aF64.0
aF67.0
aF55.0
aF72.0
aF35.0
aF66.0
aF48.0
aF66.0
aF56.0
aF35.0
aF55.0
aF59.0
aF58.0
asS'v_nonad_rg'
p14
(lp15
I8
aI168
aI35
aI84
aI158
aI34
aI24
aI159
aI189
aI248
aI434
aI107
aI193
aI181
aI190
aI453
aI274
aI67
aI80
aI115
aI156
aI268
aI103
aI342
aI5
aI71
aI479
aI287
aI310
aI480
aI204
aI352
aI379
aI23
aI256
aI89
aI321
aI21
aI48
aI157
aI241
aI370
aI37
aI378
aI78
aI290
aI472
aI214
aI312
aI484
aI63
aI53
aI478
aI9
aI307
aI366
aI380
aI66
aI305
aI231
aI88
aI396
aI14
aI162
aI51
aI163
aI306
aI100
aI161
aI335
aI91
aI249
aI127
aI315
aI77
aI145
aI7
aI76
aI355
aI56
aI206
aI43
aI98
aI39
aI284
aI267
aI152
aI293
aI208
asS'nsim_ad'
p16
I1000
sS'git'
p17
S'6993752'
p18
sS'kratio'
p19
I10
sS'r_nonad_g'
p20
(lp21
F39.0
aF70.0
aF86.0
aF32.0
aF57.0
aF46.0
aF47.0
aF52.0
aF65.0
aF54.0
aF71.0
aF44.0
aF36.0
aF70.0
aF88.0
aF60.0
aF51.0
aF64.0
aF37.0
aF70.0
aF68.0
aF58.0
aF39.0
aF66.0
aF58.0
aF66.0
aF44.0
aF69.0
aF54.0
aF50.0
aF58.0
aF52.0
aF41.0
aF72.0
aF58.0
aF48.0
aF68.0
aF67.0
aF69.0
aF71.0
aF43.0
aF52.0
aF57.0
aF52.0
aF43.0
aF51.0
aF46.0
aF59.0
aF53.0
aF36.0
aF75.0
aF41.0
aF42.0
aF24.0
aF51.0
aF73.0
aF54.0
aF47.0
aF62.0
aF66.0
aF47.0
aF90.0
aF50.0
aF32.0
aF70.0
aF74.0
aF42.0
aF67.0
aF73.0
aF72.0
aF52.0
aF62.0
aF54.0
aF54.0
aF85.0
aF52.0
aF54.0
aF53.0
aF57.0
aF50.0
aF80.0
aF76.0
aF77.0
aF63.0
aF64.0
aF60.0
aF43.0
aF62.0
aF61.0
aF51.0
aF59.0
aF49.0
aF76.0
aF48.0
aF50.0
aF70.0
aF41.0
aF49.0
aF60.0
aF53.0
asS'nsim_nonad'
p22
I10000
sS't_h'
p23
I26
sS't_s'
p24
I47
sS'r_nonad_rg'
p25
(lp26
F33.0
aF50.0
aF91.0
aF10.0
aF57.0
aF49.0
aF36.0
aF34.0
aF59.0
aF34.0
aF60.0
aF36.0
aF30.0
aF65.0
aF96.0
aF56.0
aF47.0
aF37.0
aF37.0
aF62.0
aF55.0
aF50.0
aF28.0
aF57.0
aF64.0
aF54.0
aF19.0
aF42.0
aF53.0
aF48.0
aF63.0
aF32.0
aF52.0
aF63.0
aF51.0
aF36.0
aF54.0
aF50.0
aF54.0
aF56.0
aF37.0
aF62.0
aF67.0
aF44.0
aF33.0
aF40.0
aF27.0
aF53.0
aF42.0
aF24.0
aF63.0
aF34.0
aF39.0
aF16.0
aF51.0
aF75.0
aF56.0
aF47.0
aF50.0
aF63.0
aF77.0
aF71.0
aF52.0
aF42.0
aF56.0
aF54.0
aF51.0
aF69.0
aF59.0
aF70.0
aF39.0
aF52.0
aF45.0
aF18.0
aF75.0
aF44.0
aF40.0
aF57.0
aF46.0
aF34.0
aF62.0
aF74.0
aF61.0
aF44.0
aF49.0
aF44.0
aF35.0
aF56.0
aF56.0
aF35.0
aF48.0
aF41.0
aF63.0
aF35.0
aF49.0
aF57.0
aF33.0
aF35.0
aF45.0
aF45.0
asS'workers'
p27
I3
sS'gamma'
p28
F2.0
sS'vcount'
p29
I1000
s.